(dp1
S'output'
p2
S"<class 'sqlite3.ProgrammingError'> Cannot operate on a closed database."
p3
sS'layer'
p4
S'/home/artadmin/web2py/applications/CodeReviewMachine/controllers/changelist.py'
p5
sS'code'
p6
S'# coding: utf8\n# try something like\n#import random\nimport review_assigner.py\n\ndef index(): return dict(message="hello from changelist.py")\n\n@auth.requires_login()\ndef add():\n    form = FORM("Add changelist",\n                DIV(INPUT(_name="tr_changelist", requires=IS_MATCH(\'^\\d+$\',error_message=\'Must be a number\'))),\n                DIV(INPUT(_type="submit", _label=\'Add\')))\n    if form.process(onvalidation=is_changelist_uniqeue).accepted:\n        assigned_user = get_random_user()\n        \n        db.to_review.insert(tr_changelist=form.vars.tr_changelist, tr_reporter_id=auth.user_id, tr_reviewer_id=assigned_user)\n        session.flash="Changelist \'%s\' assigned to \'%s\'" % (str(form.vars.tr_changelist),\n                                                                        " ".join([assigned_user.first_name,assigned_user.last_name]))\n        redirect(URL(\'default\',\'index\'))\n    return dict(form=form)\n\ndef is_changelist_uniqeue(form):\n    if not db(db.to_review.tr_changelist==form.vars.tr_changelist).isempty():\n        form.errors.tr_changelist = \'Changelist has been already added!\'\n\ndef get_random_user():\n    #users = db(db.auth_user.id!=auth.user_id).select(db.auth_user.ALL)\n    #return users[random.randint(0,len(users)-1)]\n    return review_assigner.get_next_user(db, auth.user_id)\n\nresponse._vars=response._caller(add)\n'
p7
sS'snapshot'
p8
(dp9
S'exception'
p10
(dp11
S'__module__'
p12
S"'sqlite3'"
p13
sS'__getslice__'
p14
S"<method-wrapper '__getslice__' of ProgrammingError object>"
p15
sS'__str__'
p16
S"<method-wrapper '__str__' of ProgrammingError object>"
p17
sS'__reduce__'
p18
S'<built-in method __reduce__ of ProgrammingError object>'
p19
sS'__dict__'
p20
S'{}'
p21
sS'__sizeof__'
p22
S'<built-in method __sizeof__ of ProgrammingError object>'
p23
sS'__weakref__'
p24
S'None'
p25
sS'__init__'
p26
S"<method-wrapper '__init__' of ProgrammingError object>"
p27
sS'__setattr__'
p28
S"<method-wrapper '__setattr__' of ProgrammingError object>"
p29
sS'__reduce_ex__'
p30
S'<built-in method __reduce_ex__ of ProgrammingError object>'
p31
sS'__new__'
p32
S'<built-in method __new__ of type object>'
p33
sS'__format__'
p34
S'<built-in method __format__ of ProgrammingError object>'
p35
sS'__class__'
p36
S"<class 'sqlite3.ProgrammingError'>"
p37
sS'__doc__'
p38
S'None'
p39
sS'__getitem__'
p40
S"<method-wrapper '__getitem__' of ProgrammingError object>"
p41
sS'__setstate__'
p42
S'<built-in method __setstate__ of ProgrammingError object>'
p43
sS'__getattribute__'
p44
S"<method-wrapper '__getattribute__' of ProgrammingError object>"
p45
sS'args'
p46
S"('Cannot operate on a closed database.',)"
p47
sS'__subclasshook__'
p48
S'<built-in method __subclasshook__ of type object>'
p49
sS'__unicode__'
p50
S'<built-in method __unicode__ of ProgrammingError object>'
p51
sS'__delattr__'
p52
S"<method-wrapper '__delattr__' of ProgrammingError object>"
p53
sS'__repr__'
p54
S"<method-wrapper '__repr__' of ProgrammingError object>"
p55
sS'__hash__'
p56
S"<method-wrapper '__hash__' of ProgrammingError object>"
p57
ssS'evalue'
p58
S'Cannot operate on a closed database.'
p59
sS'request'
p60
cgluon.html
XML_unpickle
p61
(S's8V\x00\x00<div><table><tr><td style="font-weight:bold;vertical-align:top">ajax</td><td valign="top">:</td><td><div>False</div></td></tr><tr><td style="font-weight:bold;vertical-align:top">application</td><td valign="top">:</td><td><div>CodeReviewMachine</div></td></tr><tr><td style="font-weight:bold;vertical-align:top">args</td><td valign="top">:</td><td><div><table></table></div></td></tr><tr><td style="font-weight:bold;vertical-align:top">body</td><td valign="top">:</td><td><div>&lt;open file &#x27;&lt;fdopen&gt;&#x27;, mode &#x27;w+b&#x27; at 0xb047f98&gt;</div></td></tr><tr><td style="font-weight:bold;vertical-align:top">cid</td><td valign="top">:</td><td><div>None</div></td></tr><tr><td style="font-weight:bold;vertical-align:top">client</td><td valign="top">:</td><td><div>10.0.9.76</div></td></tr><tr><td style="font-weight:bold;vertical-align:top">controller</td><td valign="top">:</td><td><div>changelist</div></td></tr><tr><td style="font-weight:bold;vertical-align:top">cookies</td><td valign="top">:</td><td><div><table><tr><td style="font-weight:bold;vertical-align:top">session_id_admin</td><td valign="top">:</td><td><div>10.0.9.76-80c19c5f-1646-4491-ac5d-d47de53592df<table><tr><td style="font-weight:bold;vertical-align:top">comment</td><td valign="top">:</td><td><div></div></td></tr><tr><td style="font-weight:bold;vertical-align:top">domain</td><td valign="top">:</td><td><div></div></td></tr><tr><td style="font-weight:bold;vertical-align:top">expires</td><td valign="top">:</td><td><div></div></td></tr><tr><td style="font-weight:bold;vertical-align:top">httponly</td><td valign="top">:</td><td><div></div></td></tr><tr><td style="font-weight:bold;vertical-align:top">max-age</td><td valign="top">:</td><td><div></div></td></tr><tr><td style="font-weight:bold;vertical-align:top">path</td><td valign="top">:</td><td><div></div></td></tr><tr><td style="font-weight:bold;vertical-align:top">secure</td><td valign="top">:</td><td><div></div></td></tr><tr><td style="font-weight:bold;vertical-align:top">version</td><td valign="top">:</td><td><div></div></td></tr></table></div></td></tr><tr><td style="font-weight:bold;vertical-align:top">session_id_codereviewmachine</td><td valign="top">:</td><td><div>10.0.9.76-acda934f-2dbd-4554-a4da-ce24a5218e3e<table><tr><td style="font-weight:bold;vertical-align:top">comment</td><td valign="top">:</td><td><div></div></td></tr><tr><td style="font-weight:bold;vertical-align:top">domain</td><td valign="top">:</td><td><div></div></td></tr><tr><td style="font-weight:bold;vertical-align:top">expires</td><td valign="top">:</td><td><div></div></td></tr><tr><td style="font-weight:bold;vertical-align:top">httponly</td><td valign="top">:</td><td><div></div></td></tr><tr><td style="font-weight:bold;vertical-align:top">max-age</td><td valign="top">:</td><td><div></div></td></tr><tr><td style="font-weight:bold;vertical-align:top">path</td><td valign="top">:</td><td><div></div></td></tr><tr><td style="font-weight:bold;vertical-align:top">secure</td><td valign="top">:</td><td><div></div></td></tr><tr><td style="font-weight:bold;vertical-align:top">version</td><td valign="top">:</td><td><div></div></td></tr></table></div></td></tr></table></div></td></tr><tr><td style="font-weight:bold;vertical-align:top">env</td><td valign="top">:</td><td><div><table><tr><td style="font-weight:bold;vertical-align:top">app_folders</td><td valign="top">:</td><td><div>set([&#x27;/home/artadmin/web2py/applications/welcome/&#x27;, &#x27;/home/artadmin/web2py/applications/admin/&#x27;, &#x27;/home/artadmin/web2py/applications/CodeReviewMachine/&#x27;])</div></td></tr><tr><td style="font-weight:bold;vertical-align:top">applications_parent</td><td valign="top">:</td><td><div>/home/artadmin/web2py</div></td></tr><tr><td style="font-weight:bold;vertical-align:top">cmd_args</td><td valign="top">:</td><td><div><table></table></div></td></tr><tr><td style="font-weight:bold;vertical-align:top">cmd_options</td><td valign="top">:</td><td><div>&lt;Values at 0xa82eb4c: {&#x27;verbose&#x27;: False, &#x27;ip&#x27;: &#x27;10.0.9.76&#x27;, &#x27;with_scheduler&#x27;: False, &#x27;ips&#x27;: [&#x27;10.0.9.76&#x27;], &#x27;shutdown_timeout&#x27;: 5, &#x27;taskbar&#x27;: False, &#x27;with_coverage&#x27;: False, &#x27;port&#x27;: 8000, &#x27;maxthreads&#x27;: None, &#x27;softcron&#x27;: False, &#x27;server_name&#x27;: &#x27;EVHUBUDSD5125&#x27;, &#x27;bpython&#x27;: False, &#x27;nogui&#x27;: False, &#x27;pid_filename&#x27;: &#x27;httpserver.pid&#x27;, &#x27;extcron&#x27;: False, &#x27;runcron&#x27;: False, &#x27;run_system_tests&#x27;: False, &#x27;test&#x27;: None, &#x27;folder&#x27;: &#x27;/home/artadmin/web2py&#x27;, &#x27;config&#x27;: &#x27;&#x27;, &#x27;import_models&#x27;: False, &#x27;winservice&#x27;: &#x27;&#x27;, &#x27;shell&#x27;: None, &#x27;run&#x27;: &#x27;&#x27;, &#x27;log_filename&#x27;: &#x27;httpserver.log&#x27;, &#x27;debuglevel&#x27;: 30, &#x27;args&#x27;: [&#x27;&#x27;], &#x27;socket_timeout&#x27;: 5, &#x27;ssl_ca_certificate&#x27;: None, &#x27;scheduler&#x27;: None, &#x27;profiler_filename&#x27;: None, &#x27;ssl_private_key&#x27;: &#x27;&#x27;, &#x27;scheduler_groups&#x27;: None, &#x27;password&#x27;: &#x27;Secret123&#x27;, &#x27;request_queue_size&#x27;: 5, &#x27;ssl_certificate&#x27;: &#x27;&#x27;, &#x27;cronjob&#x27;: False, &#x27;numthreads&#x27;: None, &#x27;quiet&#x27;: False, &#x27;interfaces&#x27;: None, &#x27;minthreads&#x27;: None, &#x27;timeout&#x27;: 10, &#x27;plain&#x27;: False, &#x27;nobanner&#x27;: False}&gt;</div></td></tr><tr><td style="font-weight:bold;vertical-align:top">content_length</td><td valign="top">:</td><td><div>442</div></td></tr><tr><td style="font-weight:bold;vertical-align:top">content_type</td><td valign="top">:</td><td><div>multipart/form-data; boundary=---------------------------11731746894883830395038583</div></td></tr><tr><td style="font-weight:bold;vertical-align:top">db_sessions</td><td valign="top">:</td><td><div>set([])</div></td></tr><tr><td style="font-weight:bold;vertical-align:top">debugging</td><td valign="top">:</td><td><div>True</div></td></tr><tr><td style="font-weight:bold;vertical-align:top">gluon_parent</td><td valign="top">:</td><td><div>/home/artadmin/web2py</div></td></tr><tr><td style="font-weight:bold;vertical-align:top">http_accept</td><td valign="top">:</td><td><div>text/html,application/xhtml+xml,application/xml;q=0.9,*/*;q=0.8</div></td></tr><tr><td style="font-weight:bold;vertical-align:top">http_accept_encoding</td><td valign="top">:</td><td><div>gzip, deflate</div></td></tr><tr><td style="font-weight:bold;vertical-align:top">http_accept_language</td><td valign="top">:</td><td><div>en-US,en;q=0.5</div></td></tr><tr><td style="font-weight:bold;vertical-align:top">http_connection</td><td valign="top">:</td><td><div>keep-alive</div></td></tr><tr><td style="font-weight:bold;vertical-align:top">http_content_length</td><td valign="top">:</td><td><div>442</div></td></tr><tr><td style="font-weight:bold;vertical-align:top">http_content_type</td><td valign="top">:</td><td><div>multipart/form-data; boundary=---------------------------11731746894883830395038583</div></td></tr><tr><td style="font-weight:bold;vertical-align:top">http_cookie</td><td valign="top">:</td><td><div>session_id_admin=10.0.9.76-80c19c5f-1646-4491-ac5d-d47de53592df; session_id_codereviewmachine=10.0.9.76-acda934f-2dbd-4554-a4da-ce24a5218e3e</div></td></tr><tr><td style="font-weight:bold;vertical-align:top">http_host</td><td valign="top">:</td><td><div>10.0.9.76:8000</div></td></tr><tr><td style="font-weight:bold;vertical-align:top">http_referer</td><td valign="top">:</td><td><div>http://10.0.9.76:8000/CodeReviewMachine/changelist/add</div></td></tr><tr><td style="font-weight:bold;vertical-align:top">http_user_agent</td><td valign="top">:</td><td><div>Mozilla/5.0 (X11; Ubuntu; Linux i686; rv:20.0) Gecko/20100101 Firefox/20.0</div></td></tr><tr><td style="font-weight:bold;vertical-align:top">is_jython</td><td valign="top">:</td><td><div>False</div></td></tr><tr><td style="font-weight:bold;vertical-align:top">is_pypy</td><td valign="top">:</td><td><div>False</div></td></tr><tr><td style="font-weight:bold;vertical-align:top">local_hosts</td><td valign="top">:</td><td><div><table><tr><td><div>EVHUBUDSD5125</div></td></tr><tr><td><div>::ffff:127.0.0.1</div></td></tr><tr><td><div>::1</div></td></tr><tr><td><div>10.0.9.76</div></td></tr><tr><td><div>evhubudsd5125.budapest.epam.com</div></td></tr><tr><td><div>127.0.0.1</div></td></tr></table></div></td></tr><tr><td style="font-weight:bold;vertical-align:top">path_info</td><td valign="top">:</td><td><div>/CodeReviewMachine/changelist/add</div></td></tr><tr><td style="font-weight:bold;vertical-align:top">query_string</td><td valign="top">:</td><td><div></div></td></tr><tr><td style="font-weight:bold;vertical-align:top">remote_addr</td><td valign="top">:</td><td><div>10.0.9.76</div></td></tr><tr><td style="font-weight:bold;vertical-align:top">remote_port</td><td valign="top">:</td><td><div>54916</div></td></tr><tr><td style="font-weight:bold;vertical-align:top">request_method</td><td valign="top">:</td><td><div>POST</div></td></tr><tr><td style="font-weight:bold;vertical-align:top">request_uri</td><td valign="top">:</td><td><div>/CodeReviewMachine/changelist/add</div></td></tr><tr><td style="font-weight:bold;vertical-align:top">script_name</td><td valign="top">:</td><td><div></div></td></tr><tr><td style="font-weight:bold;vertical-align:top">server_name</td><td valign="top">:</td><td><div>EVHUBUDSD5125</div></td></tr><tr><td style="font-weight:bold;vertical-align:top">server_port</td><td valign="top">:</td><td><div>8000</div></td></tr><tr><td style="font-weight:bold;vertical-align:top">server_protocol</td><td valign="top">:</td><td><div>HTTP/1.1</div></td></tr><tr><td style="font-weight:bold;vertical-align:top">server_software</td><td valign="top">:</td><td><div>Rocket 1.2.6</div></td></tr><tr><td style="font-weight:bold;vertical-align:top">web2py_path</td><td valign="top">:</td><td><div>/home/artadmin/web2py</div></td></tr><tr><td style="font-weight:bold;vertical-align:top">web2py_version</td><td valign="top">:</td><td><div>2.5.1-stable+timestamp.2013.06.06.15.39.19</div></td></tr><tr><td style="font-weight:bold;vertical-align:top">wsgi_errors</td><td valign="top">:</td><td><div>&lt;open file &#x27;&lt;stderr&gt;&#x27;, mode &#x27;w&#x27; at 0xb752e0d0&gt;</div></td></tr><tr><td style="font-weight:bold;vertical-align:top">wsgi_file_wrapper</td><td valign="top">:</td><td><div>&lt;class wsgiref.util.FileWrapper at 0xa6c67dc&gt;</div></td></tr><tr><td style="font-weight:bold;vertical-align:top">wsgi_input</td><td valign="top">:</td><td><div>&lt;socket._fileobject object at 0xb6951ec&gt;</div></td></tr><tr><td style="font-weight:bold;vertical-align:top">wsgi_multiprocess</td><td valign="top">:</td><td><div>False</div></td></tr><tr><td style="font-weight:bold;vertical-align:top">wsgi_multithread</td><td valign="top">:</td><td><div>True</div></td></tr><tr><td style="font-weight:bold;vertical-align:top">wsgi_run_once</td><td valign="top">:</td><td><div>False</div></td></tr><tr><td style="font-weight:bold;vertical-align:top">wsgi_url_scheme</td><td valign="top">:</td><td><div>http</div></td></tr><tr><td style="font-weight:bold;vertical-align:top">wsgi_version</td><td valign="top">:</td><td><div><table><tr><td><div>1</div></td></tr><tr><td><div>0</div></td></tr></table></div></td></tr></table></div></td></tr><tr><td style="font-weight:bold;vertical-align:top">extension</td><td valign="top">:</td><td><div>html</div></td></tr><tr><td style="font-weight:bold;vertical-align:top">folder</td><td valign="top">:</td><td><div>/home/artadmin/web2py/applications/CodeReviewMachine/</div></td></tr><tr><td style="font-weight:bold;vertical-align:top">function</td><td valign="top">:</td><td><div>add</div></td></tr><tr><td style="font-weight:bold;vertical-align:top">get_vars</td><td valign="top">:</td><td><div><table></table></div></td></tr><tr><td style="font-weight:bold;vertical-align:top">global_settings</td><td valign="top">:</td><td><div><table><tr><td style="font-weight:bold;vertical-align:top">app_folders</td><td valign="top">:</td><td><div>set([&#x27;/home/artadmin/web2py/applications/welcome/&#x27;, &#x27;/home/artadmin/web2py/applications/admin/&#x27;, &#x27;/home/artadmin/web2py/applications/CodeReviewMachine/&#x27;])</div></td></tr><tr><td style="font-weight:bold;vertical-align:top">applications_parent</td><td valign="top">:</td><td><div>/home/artadmin/web2py</div></td></tr><tr><td style="font-weight:bold;vertical-align:top">cmd_args</td><td valign="top">:</td><td><div><table></table></div></td></tr><tr><td style="font-weight:bold;vertical-align:top">cmd_options</td><td valign="top">:</td><td><div>&lt;Values at 0xa82eb4c: {&#x27;verbose&#x27;: False, &#x27;ip&#x27;: &#x27;10.0.9.76&#x27;, &#x27;with_scheduler&#x27;: False, &#x27;ips&#x27;: [&#x27;10.0.9.76&#x27;], &#x27;shutdown_timeout&#x27;: 5, &#x27;taskbar&#x27;: False, &#x27;with_coverage&#x27;: False, &#x27;port&#x27;: 8000, &#x27;maxthreads&#x27;: None, &#x27;softcron&#x27;: False, &#x27;server_name&#x27;: &#x27;EVHUBUDSD5125&#x27;, &#x27;bpython&#x27;: False, &#x27;nogui&#x27;: False, &#x27;pid_filename&#x27;: &#x27;httpserver.pid&#x27;, &#x27;extcron&#x27;: False, &#x27;runcron&#x27;: False, &#x27;run_system_tests&#x27;: False, &#x27;test&#x27;: None, &#x27;folder&#x27;: &#x27;/home/artadmin/web2py&#x27;, &#x27;config&#x27;: &#x27;&#x27;, &#x27;import_models&#x27;: False, &#x27;winservice&#x27;: &#x27;&#x27;, &#x27;shell&#x27;: None, &#x27;run&#x27;: &#x27;&#x27;, &#x27;log_filename&#x27;: &#x27;httpserver.log&#x27;, &#x27;debuglevel&#x27;: 30, &#x27;args&#x27;: [&#x27;&#x27;], &#x27;socket_timeout&#x27;: 5, &#x27;ssl_ca_certificate&#x27;: None, &#x27;scheduler&#x27;: None, &#x27;profiler_filename&#x27;: None, &#x27;ssl_private_key&#x27;: &#x27;&#x27;, &#x27;scheduler_groups&#x27;: None, &#x27;password&#x27;: &#x27;Secret123&#x27;, &#x27;request_queue_size&#x27;: 5, &#x27;ssl_certificate&#x27;: &#x27;&#x27;, &#x27;cronjob&#x27;: False, &#x27;numthreads&#x27;: None, &#x27;quiet&#x27;: False, &#x27;interfaces&#x27;: None, &#x27;minthreads&#x27;: None, &#x27;timeout&#x27;: 10, &#x27;plain&#x27;: False, &#x27;nobanner&#x27;: False}&gt;</div></td></tr><tr><td style="font-weight:bold;vertical-align:top">db_sessions</td><td valign="top">:</td><td><div>set([])</div></td></tr><tr><td style="font-weight:bold;vertical-align:top">debugging</td><td valign="top">:</td><td><div>True</div></td></tr><tr><td style="font-weight:bold;vertical-align:top">gluon_parent</td><td valign="top">:</td><td><div>/home/artadmin/web2py</div></td></tr><tr><td style="font-weight:bold;vertical-align:top">is_jython</td><td valign="top">:</td><td><div>False</div></td></tr><tr><td style="font-weight:bold;vertical-align:top">is_pypy</td><td valign="top">:</td><td><div>False</div></td></tr><tr><td style="font-weight:bold;vertical-align:top">local_hosts</td><td valign="top">:</td><td><div><table><tr><td><div>EVHUBUDSD5125</div></td></tr><tr><td><div>::ffff:127.0.0.1</div></td></tr><tr><td><div>::1</div></td></tr><tr><td><div>10.0.9.76</div></td></tr><tr><td><div>evhubudsd5125.budapest.epam.com</div></td></tr><tr><td><div>127.0.0.1</div></td></tr></table></div></td></tr><tr><td style="font-weight:bold;vertical-align:top">web2py_version</td><td valign="top">:</td><td><div>2.5.1-stable+timestamp.2013.06.06.15.39.19</div></td></tr></table></div></td></tr><tr><td style="font-weight:bold;vertical-align:top">is_https</td><td valign="top">:</td><td><div>False</div></td></tr><tr><td style="font-weight:bold;vertical-align:top">is_local</td><td valign="top">:</td><td><div>True</div></td></tr><tr><td style="font-weight:bold;vertical-align:top">is_restful</td><td valign="top">:</td><td><div>False</div></td></tr><tr><td style="font-weight:bold;vertical-align:top">now</td><td valign="top">:</td><td><div>datetime.datetime(2013, 7, 31, 11, 22, 2, 78908)</div></td></tr><tr><td style="font-weight:bold;vertical-align:top">post_vars</td><td valign="top">:</td><td><div><table><tr><td style="font-weight:bold;vertical-align:top">tr_changelist</td><td valign="top">:</td><td><div>1238</div></td></tr></table></div></td></tr><tr><td style="font-weight:bold;vertical-align:top">raw_args</td><td valign="top">:</td><td><div></div></td></tr><tr><td style="font-weight:bold;vertical-align:top">raw_extension</td><td valign="top">:</td><td><div>None</div></td></tr><tr><td style="font-weight:bold;vertical-align:top">url</td><td valign="top">:</td><td><div>/CodeReviewMachine/changelist/add</div></td></tr><tr><td style="font-weight:bold;vertical-align:top">utcnow</td><td valign="top">:</td><td><div>datetime.datetime(2013, 7, 31, 11, 22, 2, 78929)</div></td></tr><tr><td style="font-weight:bold;vertical-align:top">uuid</td><td valign="top">:</td><td><div>CodeReviewMachine/10.0.9.76.2013-07-31.11-22-02.2186974a-5bc1-4b4d-afd1-ef60c151db4d</div></td></tr><tr><td style="font-weight:bold;vertical-align:top">vars</td><td valign="top">:</td><td><div><table><tr><td style="font-weight:bold;vertical-align:top">tr_changelist</td><td valign="top">:</td><td><div>1238</div></td></tr></table></div></td></tr><tr><td style="font-weight:bold;vertical-align:top">wsgi</td><td valign="top">:</td><td><div><table><tr><td style="font-weight:bold;vertical-align:top">environ</td><td valign="top">:</td><td><div><table><tr><td style="font-weight:bold;vertical-align:top">CONTENT_LENGTH</td><td valign="top">:</td><td><div>442</div></td></tr><tr><td style="font-weight:bold;vertical-align:top">CONTENT_TYPE</td><td valign="top">:</td><td><div>multipart/form-data; boundary=---------------------------11731746894883830395038583</div></td></tr><tr><td style="font-weight:bold;vertical-align:top">HTTP_ACCEPT</td><td valign="top">:</td><td><div>text/html,application/xhtml+xml,application/xml;q=0.9,*/*;q=0.8</div></td></tr><tr><td style="font-weight:bold;vertical-align:top">HTTP_ACCEPT_ENCODING</td><td valign="top">:</td><td><div>gzip, deflate</div></td></tr><tr><td style="font-weight:bold;vertical-align:top">HTTP_ACCEPT_LANGUAGE</td><td valign="top">:</td><td><div>en-US,en;q=0.5</div></td></tr><tr><td style="font-weight:bold;vertical-align:top">HTTP_CONNECTION</td><td valign="top">:</td><td><div>keep-alive</div></td></tr><tr><td style="font-weight:bold;vertical-align:top">HTTP_CONTENT_LENGTH</td><td valign="top">:</td><td><div>442</div></td></tr><tr><td style="font-weight:bold;vertical-align:top">HTTP_CONTENT_TYPE</td><td valign="top">:</td><td><div>multipart/form-data; boundary=---------------------------11731746894883830395038583</div></td></tr><tr><td style="font-weight:bold;vertical-align:top">HTTP_COOKIE</td><td valign="top">:</td><td><div>session_id_admin=10.0.9.76-80c19c5f-1646-4491-ac5d-d47de53592df; session_id_codereviewmachine=10.0.9.76-acda934f-2dbd-4554-a4da-ce24a5218e3e</div></td></tr><tr><td style="font-weight:bold;vertical-align:top">HTTP_HOST</td><td valign="top">:</td><td><div>10.0.9.76:8000</div></td></tr><tr><td style="font-weight:bold;vertical-align:top">HTTP_REFERER</td><td valign="top">:</td><td><div>http://10.0.9.76:8000/CodeReviewMachine/changelist/add</div></td></tr><tr><td style="font-weight:bold;vertical-align:top">HTTP_USER_AGENT</td><td valign="top">:</td><td><div>Mozilla/5.0 (X11; Ubuntu; Linux i686; rv:20.0) Gecko/20100101 Firefox/20.0</div></td></tr><tr><td style="font-weight:bold;vertical-align:top">PATH_INFO</td><td valign="top">:</td><td><div>/CodeReviewMachine/changelist/add</div></td></tr><tr><td style="font-weight:bold;vertical-align:top">QUERY_STRING</td><td valign="top">:</td><td><div></div></td></tr><tr><td style="font-weight:bold;vertical-align:top">REMOTE_ADDR</td><td valign="top">:</td><td><div>10.0.9.76</div></td></tr><tr><td style="font-weight:bold;vertical-align:top">REMOTE_PORT</td><td valign="top">:</td><td><div>54916</div></td></tr><tr><td style="font-weight:bold;vertical-align:top">REQUEST_METHOD</td><td valign="top">:</td><td><div>POST</div></td></tr><tr><td style="font-weight:bold;vertical-align:top">REQUEST_URI</td><td valign="top">:</td><td><div>/CodeReviewMachine/changelist/add</div></td></tr><tr><td style="font-weight:bold;vertical-align:top">SCRIPT_NAME</td><td valign="top">:</td><td><div></div></td></tr><tr><td style="font-weight:bold;vertical-align:top">SERVER_NAME</td><td valign="top">:</td><td><div>EVHUBUDSD5125</div></td></tr><tr><td style="font-weight:bold;vertical-align:top">SERVER_PORT</td><td valign="top">:</td><td><div>8000</div></td></tr><tr><td style="font-weight:bold;vertical-align:top">SERVER_PROTOCOL</td><td valign="top">:</td><td><div>HTTP/1.1</div></td></tr><tr><td style="font-weight:bold;vertical-align:top">SERVER_SOFTWARE</td><td valign="top">:</td><td><div>Rocket 1.2.6</div></td></tr><tr><td style="font-weight:bold;vertical-align:top">wsgi.errors</td><td valign="top">:</td><td><div>&lt;open file &#x27;&lt;stderr&gt;&#x27;, mode &#x27;w&#x27; at 0xb752e0d0&gt;</div></td></tr><tr><td style="font-weight:bold;vertical-align:top">wsgi.file_wrapper</td><td valign="top">:</td><td><div>&lt;class wsgiref.util.FileWrapper at 0xa6c67dc&gt;</div></td></tr><tr><td style="font-weight:bold;vertical-align:top">wsgi.input</td><td valign="top">:</td><td><div>&lt;open file &#x27;&lt;fdopen&gt;&#x27;, mode &#x27;w+b&#x27; at 0xb047f98&gt;</div></td></tr><tr><td style="font-weight:bold;vertical-align:top">wsgi.multiprocess</td><td valign="top">:</td><td><div>False</div></td></tr><tr><td style="font-weight:bold;vertical-align:top">wsgi.multithread</td><td valign="top">:</td><td><div>True</div></td></tr><tr><td style="font-weight:bold;vertical-align:top">wsgi.run_once</td><td valign="top">:</td><td><div>False</div></td></tr><tr><td style="font-weight:bold;vertical-align:top">wsgi.url_scheme</td><td valign="top">:</td><td><div>http</div></td></tr><tr><td style="font-weight:bold;vertical-align:top">wsgi.version</td><td valign="top">:</td><td><div>1</div></td></tr></table></div></td></tr></table></div></td></tr></table></div>'
tRp62
sS'frames'
p63
(lp64
(dp65
S'file'
p66
S'/home/artadmin/web2py/gluon/restricted.py'
p67
sS'dump'
p68
(dp69
S'environment'
p70
S"{'A': <class 'gluon.html.A'>, 'ANY_OF': <class 'gluon.validators.ANY_OF'>, 'Auth': <class 'gluon.tools.Auth'>, 'B': <class 'gluon.html.B'>, 'BEAUTIFY': <class 'gluon.html.BEAUTIFY'>, 'BODY': <class 'gluon.html.BODY'>, 'BR': <class 'gluon.html.BR'>, 'BUTTON': <class 'gluon.html.BUTTON'>, 'CAT': <class 'gluon.html.CAT'>, 'CENTER': <class 'gluon.html.CENTER'>, ...}"
p71
sS'ccode'
p72
S'<code object <module> at 0xafad9b0, file "/home/...ReviewMachine/controllers/changelist.py", line 4>'
p73
ssS'lnum'
p74
I212
sS'lines'
p75
(dp76
I207
S'    try:'
p77
sI208
S'        if isinstance(code, types.CodeType):'
p78
sI209
S'            ccode = code'
p79
sI210
S'        else:'
p80
sI211
S'            ccode = compile2(code, layer)'
p81
sI212
S'        exec ccode in environment'
p82
sI213
S'    except HTTP:'
p83
sI214
S'        raise'
p84
sI215
S'    except RestrictedError:'
p85
sI216
S'        # do not encapsulate (obfuscate) the original RestrictedError'
p86
ssS'call'
p87
S"(code='# coding: utf8\\n# try something like\\n#import rand...h.user_id)\\n\\nresponse._vars=response._caller(add)\\n', environment={'A': <class 'gluon.html.A'>, 'ANY_OF': <class 'gluon.validators.ANY_OF'>, 'Auth': <class 'gluon.tools.Auth'>, 'B': <class 'gluon.html.B'>, 'BEAUTIFY': <class 'gluon.html.BEAUTIFY'>, 'BODY': <class 'gluon.html.BODY'>, 'BR': <class 'gluon.html.BR'>, 'BUTTON': <class 'gluon.html.BUTTON'>, 'CAT': <class 'gluon.html.CAT'>, 'CENTER': <class 'gluon.html.CENTER'>, ...}, layer='/home/artadmin/web2py/applications/CodeReviewMachine/controllers/changelist.py')"
p88
sS'func'
p89
S'restricted'
p90
sa(dp91
g66
S'/home/artadmin/web2py/applications/CodeReviewMachine/controllers/changelist.py'
p92
sg68
(dp93
sg74
I31
sg75
(dp94
I20
S'    return dict(form=form)'
p95
sI21
S''
sI22
S'def is_changelist_uniqeue(form):'
p96
sI23
S'    if not db(db.to_review.tr_changelist==form.vars.tr_changelist).isempty():'
p97
sI24
S"        form.errors.tr_changelist = 'Changelist has been already added!'"
p98
sI25
S''
sI26
S'def get_random_user():'
p99
sI27
S'    #users = db(db.auth_user.id!=auth.user_id).select(db.auth_user.ALL)'
p100
sI28
S'    #return users[random.randint(0,len(users)-1)]'
p101
sI29
S'    return review_assigner.get_next_user(db, auth.user_id)'
p102
ssg87
S'()'
p103
sg89
S'<module>'
p104
sa(dp105
g66
S'/home/artadmin/web2py/gluon/globals.py'
p106
sg68
(dp107
S'self'
p108
S'undefined'
p109
sS'f'
S'<function add>'
p110
ssg74
I194
sg75
(dp111
I192
S"        self.delimiters = ('{{', '}}')"
p112
sI193
S'        self._vars = None'
p113
sI194
S'        self._caller = lambda f: f()'
p114
sI195
S'        self._view_environment = None'
p115
sI196
S'        self._custom_commit = None'
p116
sI197
S'        self._custom_rollback = None'
p117
sI198
S''
sI189
S'        self.menu = []             # used by the default view layout'
p118
sI190
S'        self.files = []            # used by web2py_ajax.html'
p119
sI191
S'        self.generic_patterns = []  # patterns to allow generic views'
p120
ssg87
S'(f=<function add>)'
p121
sg89
S'<lambda>'
p122
sa(dp123
g66
S'/home/artadmin/web2py/gluon/tools.py'
p124
sg68
(dp125
S'action'
p126
S'<function add>'
p127
sS'a'
S'()'
p128
sS'b'
g21
ssg74
I3022
sg75
(dp129
I3017
S'                    flag = condition'
p130
sI3018
S'                if not flag:'
p131
sI3019
S'                    current.session.flash = self.messages.access_denied'
p132
sI3020
S'                    return call_or_redirect('
p133
sI3021
S'                        self.settings.on_failed_authorization)'
p134
sI3022
S'                return action(*a, **b)'
p135
sI3023
S'            f.__doc__ = action.__doc__'
p136
sI3024
S'            f.__name__ = action.__name__'
p137
sI3025
S'            f.__dict__.update(action.__dict__)'
p138
sI3026
S'            return f'
p139
ssg87
S'(*a=(), **b={})'
p140
sg89
S'f'
sa(dp141
g66
S'/home/artadmin/web2py/applications/CodeReviewMachine/controllers/changelist.py'
p142
sg68
(dp143
S'assigned_user'
p144
g109
sS'global get_random_user'
p145
S'<function get_random_user>'
p146
ssg74
I14
sg75
(dp147
I9
S'def add():'
p148
sI10
S'    form = FORM("Add changelist",'
p149
sI11
S'                DIV(INPUT(_name="tr_changelist", requires=IS_MATCH(\'^\\d+$\',error_message=\'Must be a number\'))),'
p150
sI12
S'                DIV(INPUT(_type="submit", _label=\'Add\')))'
p151
sI13
S'    if form.process(onvalidation=is_changelist_uniqeue).accepted:'
p152
sI14
S'        assigned_user = get_random_user()'
p153
sI15
S''
sI16
S'        db.to_review.insert(tr_changelist=form.vars.tr_changelist, tr_reporter_id=auth.user_id, tr_reviewer_id=assigned_user)'
p154
sI17
S'        session.flash="Changelist \'%s\' assigned to \'%s\'" % (str(form.vars.tr_changelist),'
p155
sI18
S'                                                                        " ".join([assigned_user.first_name,assigned_user.last_name]))'
p156
ssg87
S'()'
p157
sg89
S'add'
p158
sa(dp159
g66
S'/home/artadmin/web2py/applications/CodeReviewMachine/controllers/changelist.py'
p160
sg68
(dp161
S'review_assigner.get_next_user'
p162
S'<function get_next_user>'
p163
sS'global db'
p164
S'<DAL uri="sqlite://storage.sqlite">'
p165
sS'global auth'
p166
S'<gluon.tools.Auth object>'
p167
sS'global review_assigner'
p168
S"<module 'applications.CodeReviewMachine.modules....ns/CodeReviewMachine/modules/review_assigner.py'>"
p169
sS'auth.user_id'
p170
S'4L'
p171
ssg74
I29
sg75
(dp172
I20
S'    return dict(form=form)'
p173
sI21
S''
sI22
S'def is_changelist_uniqeue(form):'
p174
sI23
S'    if not db(db.to_review.tr_changelist==form.vars.tr_changelist).isempty():'
p175
sI24
S"        form.errors.tr_changelist = 'Changelist has been already added!'"
p176
sI25
S''
sI26
S'def get_random_user():'
p177
sI27
S'    #users = db(db.auth_user.id!=auth.user_id).select(db.auth_user.ALL)'
p178
sI28
S'    #return users[random.randint(0,len(users)-1)]'
p179
sI29
S'    return review_assigner.get_next_user(db, auth.user_id)'
p180
ssg87
S'()'
p181
sg89
S'get_random_user'
p182
sa(dp183
g66
S'/home/artadmin/web2py/applications/CodeReviewMachine/modules/review_assigner.py'
p184
sg68
(dp185
S'ra.get_next_user'
p186
S'<bound method ReviewAssigner.get_next_user of <a...e.modules.review_assigner.ReviewAssigner object>>'
p187
sS'user_id'
p188
S'4L'
p189
sS'global ra'
p190
S'<applications.CodeReviewMachine.modules.review_assigner.ReviewAssigner object>'
p191
ssg74
I30
sg75
(dp192
I21
S'            self.index=1'
p193
sI22
S'            self.users=self.db(self.db.auth_user.id!=user_id).select(self.db.auth_user.ALL)'
p194
sI23
S'            return self.users[0]'
p195
sI24
S''
sI25
S'ra=None'
p196
sI26
S'def get_next_user(db,user_id):'
p197
sI27
S'    global ra'
p198
sI28
S'    if not ra:'
p199
sI29
S'        ra = ReviewAssigner(db,user_id)'
p200
sI30
S'    return ra.get_next_user(user_id)'
p201
ssg87
S'(db=<DAL uri="sqlite://storage.sqlite">, user_id=4L)'
p202
sg89
S'get_next_user'
p203
sa(dp204
g66
S'/home/artadmin/web2py/applications/CodeReviewMachine/modules/review_assigner.py'
p205
sg68
(dp206
S'self.db.auth_user'
p207
S'<Table auth_user (id,first_name,last_name,email,...stration_key,reset_password_key,registration_id)>'
p208
sS'user_id'
p209
S'4L'
p210
sS'self.users'
p211
S'<Rows (4)>'
p212
sS'self.db.auth_user.id'
p213
S'<gluon.dal.Field object>'
p214
sS'self'
p215
S'<applications.CodeReviewMachine.modules.review_assigner.ReviewAssigner object>'
p216
sS').select'
p217
g109
sS'self.db.auth_user.ALL'
p218
S'<gluon.dal.SQLALL object>'
p219
sS'self.db'
p220
S'<DAL uri="sqlite://storage.sqlite">'
p221
ssg74
I22
sg75
(dp222
I17
S'            self.index += 1'
p223
sI18
S'            return self.users[self.index-1]'
p224
sI19
S'        else:'
p225
sI20
S'            print "Generate new list"'
p226
sI21
S'            self.index=1'
p227
sI22
S'            self.users=self.db(self.db.auth_user.id!=user_id).select(self.db.auth_user.ALL)'
p228
sI23
S'            return self.users[0]'
p229
sI24
S''
sI25
S'ra=None'
p230
sI26
S'def get_next_user(db,user_id):'
p231
ssg87
S'(self=<applications.CodeReviewMachine.modules.review_assigner.ReviewAssigner object>, user_id=4L)'
p232
sg89
g203
sa(dp233
g66
S'/home/artadmin/web2py/gluon/dal.py'
p234
sg68
(dp235
S'self.query'
p236
S'<Query (auth_user.id <> 4)>'
p237
sS'adapter.select'
p238
S'<bound method SQLiteAdapter.select of <gluon.dal.SQLiteAdapter object>>'
p239
sS'fields'
p240
S'[<gluon.dal.Field object>, <gluon.dal.Field object>, <gluon.dal.Field object>, <gluon.dal.Field object>, <gluon.dal.Field object>, <gluon.dal.Field object>, <gluon.dal.Field object>, <gluon.dal.Field object>]'
p241
sS'adapter'
p242
S'<gluon.dal.SQLiteAdapter object>'
p243
sS'attributes'
p244
g21
sS'self'
p245
S'<Set (auth_user.id <> 4)>'
p246
ssg74
I9958
sg75
(dp247
I9953
S"                                    attributes.get('join',None),"
p248
sI9954
S"                                    attributes.get('left',None),"
p249
sI9955
S"                                    attributes.get('orderby',None),"
p250
sI9956
S"                                    attributes.get('groupby',None))"
p251
sI9957
S'        fields = adapter.expand_all(fields, tablenames)'
p252
sI9958
S'        return adapter.select(self.query,fields,attributes)'
p253
sI9959
S''
sI9960
S'    def nested_select(self,*fields,**attributes):'
p254
sI9961
S'        return Expression(self.db,self._select(*fields,**attributes))'
p255
sI9962
S''
ssg87
S'(self=<Set (auth_user.id <> 4)>, *fields=[<gluon.dal.Field object>, <gluon.dal.Field object>, <gluon.dal.Field object>, <gluon.dal.Field object>, <gluon.dal.Field object>, <gluon.dal.Field object>, <gluon.dal.Field object>, <gluon.dal.Field object>], **attributes={})'
p256
sg89
S'select'
p257
sa(dp258
g66
S'/home/artadmin/web2py/gluon/dal.py'
p259
sg68
(dp260
S'fields'
p261
S'[<gluon.dal.Field object>, <gluon.dal.Field object>, <gluon.dal.Field object>, <gluon.dal.Field object>, <gluon.dal.Field object>, <gluon.dal.Field object>, <gluon.dal.Field object>, <gluon.dal.Field object>]'
p262
sS'self'
p263
S'<gluon.dal.SQLiteAdapter object>'
p264
sS').select'
p265
S'<bound method SQLiteAdapter.select of <gluon.dal.SQLiteAdapter object>>'
p266
sS'attributes'
p267
g21
sS'global SQLiteAdapter'
p268
S"<class 'gluon.dal.SQLiteAdapter'>"
p269
sS'query'
p270
S'<Query (auth_user.id <> 4)>'
p271
sS'builtinsuper'
p272
S"<type 'super'>"
p273
ssg74
I2245
sg75
(dp274
I2240
S'        Note that the entire database, rather than one record, is locked'
p275
sI2241
S'        (it will be locked eventually anyway by the following UPDATE).'
p276
sI2242
S'        """'
p277
sI2243
S"        if attributes.get('for_update', False) and not 'cache' in attributes:"
p278
sI2244
S"            self.execute('BEGIN IMMEDIATE TRANSACTION;')"
p279
sI2245
S'        return super(SQLiteAdapter, self).select(query, fields, attributes)'
p280
sI2246
S''
sI2247
S'class SpatiaLiteAdapter(SQLiteAdapter):'
p281
sI2248
S"    drivers = ('sqlite3','sqlite2')"
p282
sI2249
S''
ssg87
S'(self=<gluon.dal.SQLiteAdapter object>, query=<Query (auth_user.id <> 4)>, fields=[<gluon.dal.Field object>, <gluon.dal.Field object>, <gluon.dal.Field object>, <gluon.dal.Field object>, <gluon.dal.Field object>, <gluon.dal.Field object>, <gluon.dal.Field object>, <gluon.dal.Field object>], attributes={})'
p283
sg89
g257
sa(dp284
g66
S'/home/artadmin/web2py/gluon/dal.py'
p285
sg68
(dp286
S'fields'
p287
S'[<gluon.dal.Field object>, <gluon.dal.Field object>, <gluon.dal.Field object>, <gluon.dal.Field object>, <gluon.dal.Field object>, <gluon.dal.Field object>, <gluon.dal.Field object>, <gluon.dal.Field object>]'
p288
sS'self'
p289
S'<gluon.dal.SQLiteAdapter object>'
p290
sS'attributes'
p291
g21
sS'self._select_aux'
p292
S'<bound method SQLiteAdapter._select_aux of <gluon.dal.SQLiteAdapter object>>'
p293
sS'sql'
p294
S"'SELECT  auth_user.id, auth_user.first_name, auth...tion_id FROM auth_user WHERE (auth_user.id <> 4);'"
p295
ssg74
I1704
sg75
(dp296
I1699
S'            return cache_model('
p297
sI1700
S'                key,'
p298
sI1701
S'                lambda self=self,args=args:self._select_aux(*args),'
p299
sI1702
S'                time_expire)'
p300
sI1703
S'        else:'
p301
sI1704
S'            return self._select_aux(sql,fields,attributes)'
p302
sI1705
S''
sI1706
S'    def _count(self, query, distinct=None):'
p303
sI1707
S'        tablenames = self.tables(query)'
p304
sI1708
S'        if query:'
p305
ssg87
S'(self=<gluon.dal.SQLiteAdapter object>, query=<Query (auth_user.id <> 4)>, fields=[<gluon.dal.Field object>, <gluon.dal.Field object>, <gluon.dal.Field object>, <gluon.dal.Field object>, <gluon.dal.Field object>, <gluon.dal.Field object>, <gluon.dal.Field object>, <gluon.dal.Field object>], attributes={})'
p306
sg89
g257
sa(dp307
g66
S'/home/artadmin/web2py/gluon/dal.py'
p308
sg68
(dp309
S'self._fetchall'
p310
S'<bound method SQLiteAdapter._fetchall of <gluon.dal.SQLiteAdapter object>>'
p311
sS'self'
p312
S'<gluon.dal.SQLiteAdapter object>'
p313
sS'rows'
p314
g109
ssg74
I1670
sg75
(dp315
I1665
S'    def _select_aux(self,sql,fields,attributes):'
p316
sI1666
S'        args_get = attributes.get'
p317
sI1667
S"        cache = args_get('cache',None)"
p318
sI1668
S'        if not cache:'
p319
sI1669
S'            self.execute(sql)'
p320
sI1670
S'            rows = self._fetchall()'
p321
sI1671
S'        else:'
p322
sI1672
S'            (cache_model, time_expire) = cache'
p323
sI1673
S"            key = self.uri + '/' + sql + '/rows'"
p324
sI1674
S'            if len(key)>200: key = hashlib_md5(key).hexdigest()'
p325
ssg87
S"(self=<gluon.dal.SQLiteAdapter object>, sql='SELECT  auth_user.id, auth_user.first_name, auth...tion_id FROM auth_user WHERE (auth_user.id <> 4);', fields=[<gluon.dal.Field object>, <gluon.dal.Field object>, <gluon.dal.Field object>, <gluon.dal.Field object>, <gluon.dal.Field object>, <gluon.dal.Field object>, <gluon.dal.Field object>, <gluon.dal.Field object>], attributes={})"
p326
sg89
S'_select_aux'
p327
sa(dp328
g66
S'/home/artadmin/web2py/gluon/dal.py'
p329
sg68
(dp330
S'self.cursor'
p331
S'<sqlite3.Cursor object>'
p332
sS'self'
p333
S'<gluon.dal.SQLiteAdapter object>'
p334
sS'self.cursor.fetchall'
p335
S'<built-in method fetchall of sqlite3.Cursor object>'
p336
ssg74
I1663
sg75
(dp337
I1664
S''
sI1665
S'    def _select_aux(self,sql,fields,attributes):'
p338
sI1666
S'        args_get = attributes.get'
p339
sI1667
S"        cache = args_get('cache',None)"
p340
sI1658
S"            sql_o += ' LIMIT %i OFFSET %i' % (lmax - lmin, lmin)"
p341
sI1659
S"        return 'SELECT %s %s FROM %s%s%s;' % \\"
p342
sI1660
S'            (sql_s, sql_f, sql_t, sql_w, sql_o)'
p343
sI1661
S''
sI1662
S'    def _fetchall(self):'
p344
sI1663
S'        return self.cursor.fetchall()'
p345
ssg87
S'(self=<gluon.dal.SQLiteAdapter object>)'
p346
sg89
S'_fetchall'
p347
sasS'pyver'
p348
S'Python 2.6.5: /usr/bin/python (prefix: /usr)'
p349
sS'session'
p350
g61
(S's\x01\t\x00\x00<div><table><tr><td style="font-weight:bold;vertical-align:top">auth</td><td valign="top">:</td><td><div><table><tr><td style="font-weight:bold;vertical-align:top">expiration</td><td valign="top">:</td><td><div>3600</div></td></tr><tr><td style="font-weight:bold;vertical-align:top">hmac_key</td><td valign="top">:</td><td><div>95b6b394-6698-4602-9397-d8473be8e33f</div></td></tr><tr><td style="font-weight:bold;vertical-align:top">last_visit</td><td valign="top">:</td><td><div>datetime.datetime(2013, 7, 31, 11, 20, 0, 31638)</div></td></tr><tr><td style="font-weight:bold;vertical-align:top">remember</td><td valign="top">:</td><td><div>False</div></td></tr><tr><td style="font-weight:bold;vertical-align:top">user</td><td valign="top">:</td><td><div><table><tr><td style="font-weight:bold;vertical-align:top">email</td><td valign="top">:</td><td><div>laszlo_tarcsanyi@epam.com</div></td></tr><tr><td style="font-weight:bold;vertical-align:top">first_name</td><td valign="top">:</td><td><div>L\xc3\xa1szl\xc3\xb3</div></td></tr><tr><td style="font-weight:bold;vertical-align:top">id</td><td valign="top">:</td><td><div>4L</div></td></tr><tr><td style="font-weight:bold;vertical-align:top">last_name</td><td valign="top">:</td><td><div>Tarcs\xc3\xa1nyi</div></td></tr><tr><td style="font-weight:bold;vertical-align:top">registration_id</td><td valign="top">:</td><td><div></div></td></tr><tr><td style="font-weight:bold;vertical-align:top">registration_key</td><td valign="top">:</td><td><div></div></td></tr><tr><td style="font-weight:bold;vertical-align:top">reset_password_key</td><td valign="top">:</td><td><div></div></td></tr></table></div></td></tr><tr><td style="font-weight:bold;vertical-align:top">user_groups</td><td valign="top">:</td><td><div><table><tr><td style="font-weight:bold;vertical-align:top">4</td><td valign="top">:</td><td><div>user_4</div></td></tr></table></div></td></tr></table></div></td></tr><tr><td style="font-weight:bold;vertical-align:top">flash</td><td valign="top">:</td><td><div>None</div></td></tr><tr><td style="font-weight:bold;vertical-align:top">last_orderby</td><td valign="top">:</td><td><div>None</div></td></tr><tr><td style="font-weight:bold;vertical-align:top">last_query</td><td valign="top">:</td><td><div>db.to_review.tr_changelist&lt;1240</div></td></tr></table></div>'
tRp351
sS'etype'
p352
S"<class 'sqlite3.ProgrammingError'>"
p353
sS'date'
p354
S'Wed Jul 31 11:22:02 2013'
p355
sS'response'
p356
g61
(S's\xbf\x18\x00\x00<div><table><tr><td style="font-weight:bold;vertical-align:top">body</td><td valign="top">:</td><td><div>&lt;cStringIO.StringO object at 0xae8ea00&gt;</div></td></tr><tr><td style="font-weight:bold;vertical-align:top">cookies</td><td valign="top">:</td><td><div><table><tr><td style="font-weight:bold;vertical-align:top">session_id_codereviewmachine</td><td valign="top">:</td><td><div>10.0.9.76-acda934f-2dbd-4554-a4da-ce24a5218e3e<table><tr><td style="font-weight:bold;vertical-align:top">comment</td><td valign="top">:</td><td><div></div></td></tr><tr><td style="font-weight:bold;vertical-align:top">domain</td><td valign="top">:</td><td><div></div></td></tr><tr><td style="font-weight:bold;vertical-align:top">expires</td><td valign="top">:</td><td><div></div></td></tr><tr><td style="font-weight:bold;vertical-align:top">httponly</td><td valign="top">:</td><td><div></div></td></tr><tr><td style="font-weight:bold;vertical-align:top">max-age</td><td valign="top">:</td><td><div></div></td></tr><tr><td style="font-weight:bold;vertical-align:top">path</td><td valign="top">:</td><td><div>/</div></td></tr><tr><td style="font-weight:bold;vertical-align:top">secure</td><td valign="top">:</td><td><div></div></td></tr><tr><td style="font-weight:bold;vertical-align:top">version</td><td valign="top">:</td><td><div></div></td></tr></table></div></td></tr></table></div></td></tr><tr><td style="font-weight:bold;vertical-align:top">delimiters</td><td valign="top">:</td><td><div><table><tr><td><div>{{</div></td></tr><tr><td><div>}}</div></td></tr></table></div></td></tr><tr><td style="font-weight:bold;vertical-align:top">files</td><td valign="top">:</td><td><div><table></table></div></td></tr><tr><td style="font-weight:bold;vertical-align:top">flash</td><td valign="top">:</td><td><div>Success!</div></td></tr><tr><td style="font-weight:bold;vertical-align:top">generic_patterns</td><td valign="top">:</td><td><div><table><tr><td><div>*</div></td></tr></table></div></td></tr><tr><td style="font-weight:bold;vertical-align:top">google_analytics_id</td><td valign="top">:</td><td><div>None</div></td></tr><tr><td style="font-weight:bold;vertical-align:top">headers</td><td valign="top">:</td><td><div><table><tr><td style="font-weight:bold;vertical-align:top">X-Powered-By</td><td valign="top">:</td><td><div>web2py</div></td></tr></table></div></td></tr><tr><td style="font-weight:bold;vertical-align:top">logo</td><td valign="top">:</td><td><div><a class="brand" href="/CodeReviewMachine/default/index"><b>Code<span> Review </span>Machine</b></a></div></td></tr><tr><td style="font-weight:bold;vertical-align:top">menu</td><td valign="top">:</td><td><div><table><tr><td><div><table><tr><td><div>Add changelist</div></td></tr><tr><td><div>False</div></td></tr><tr><td><div>/CodeReviewMachine/changelist/add</div></td></tr><tr><td><div><table></table></div></td></tr></table></div></td></tr><tr><td><div><table><tr><td><div>My reviews</div></td></tr><tr><td><div>False</div></td></tr><tr><td><div>None</div></td></tr><tr><td><div><table><tr><td><div><table><tr><td><div>To do</div></td></tr><tr><td><div>False</div></td></tr><tr><td><div>/CodeReviewMachine/reviews/todo</div></td></tr><tr><td><div>[]</div></td></tr></table></div></td></tr><tr><td><div><table><tr><td><div>Done</div></td></tr><tr><td><div>False</div></td></tr><tr><td><div>/CodeReviewMachine/reviews/done</div></td></tr><tr><td><div>[]</div></td></tr></table></div></td></tr></table></div></td></tr></table></div></td></tr></table></div></td></tr><tr><td style="font-weight:bold;vertical-align:top">meta</td><td valign="top">:</td><td><div><table><tr><td style="font-weight:bold;vertical-align:top">author</td><td valign="top">:</td><td><div>Your Name &lt;you@example.com&gt;</div></td></tr><tr><td style="font-weight:bold;vertical-align:top">description</td><td valign="top">:</td><td><div>a cool new app</div></td></tr><tr><td style="font-weight:bold;vertical-align:top">generator</td><td valign="top">:</td><td><div>Web2py Web Framework</div></td></tr><tr><td style="font-weight:bold;vertical-align:top">keywords</td><td valign="top">:</td><td><div>web2py, python, framework</div></td></tr></table></div></td></tr><tr><td style="font-weight:bold;vertical-align:top">models_to_run</td><td valign="top">:</td><td><div><table><tr><td><div>^\\w+\\.py$</div></td></tr><tr><td><div>^changelist/\\w+\\.py$</div></td></tr><tr><td><div>^changelist/add/\\w+\\.py$</div></td></tr></table></div></td></tr><tr><td style="font-weight:bold;vertical-align:top">postprocessing</td><td valign="top">:</td><td><div><table></table></div></td></tr><tr><td style="font-weight:bold;vertical-align:top">session_cookie_expires</td><td valign="top">:</td><td><div>None</div></td></tr><tr><td style="font-weight:bold;vertical-align:top">session_data_name</td><td valign="top">:</td><td><div>session_data_codereviewmachine</div></td></tr><tr><td style="font-weight:bold;vertical-align:top">session_file</td><td valign="top">:</td><td><div>&lt;open file &#x27;/home/artadmin/web2py/applications/CodeReviewMachine/sessions/10.0.9.76-acda934f-2dbd-4554-a4da-ce24a5218e3e&#x27;, mode &#x27;rb+&#x27; at 0xb047e38&gt;</div></td></tr><tr><td style="font-weight:bold;vertical-align:top">session_filename</td><td valign="top">:</td><td><div>/home/artadmin/web2py/applications/CodeReviewMachine/sessions/10.0.9.76-acda934f-2dbd-4554-a4da-ce24a5218e3e</div></td></tr><tr><td style="font-weight:bold;vertical-align:top">session_id</td><td valign="top">:</td><td><div>10.0.9.76-acda934f-2dbd-4554-a4da-ce24a5218e3e</div></td></tr><tr><td style="font-weight:bold;vertical-align:top">session_id_name</td><td valign="top">:</td><td><div>session_id_codereviewmachine</div></td></tr><tr><td style="font-weight:bold;vertical-align:top">session_locked</td><td valign="top">:</td><td><div>True</div></td></tr><tr><td style="font-weight:bold;vertical-align:top">session_new</td><td valign="top">:</td><td><div>False</div></td></tr><tr><td style="font-weight:bold;vertical-align:top">session_storage_type</td><td valign="top">:</td><td><div>file</div></td></tr><tr><td style="font-weight:bold;vertical-align:top">status</td><td valign="top">:</td><td><div>200</div></td></tr><tr><td style="font-weight:bold;vertical-align:top">view</td><td valign="top">:</td><td><div>changelist/add.html</div></td></tr></table></div>'
tRp357
sS'locals'
p358
(dp359
S'self'
p360
S'<gluon.dal.SQLiteAdapter object>'
p361
sssS'traceback'
p362
S'Traceback (most recent call last):\n  File "/home/artadmin/web2py/gluon/restricted.py", line 212, in restricted\n    exec ccode in environment\n  File "/home/artadmin/web2py/applications/CodeReviewMachine/controllers/changelist.py", line 31, in <module>\n  File "/home/artadmin/web2py/gluon/globals.py", line 194, in <lambda>\n    self._caller = lambda f: f()\n  File "/home/artadmin/web2py/gluon/tools.py", line 3022, in f\n    return action(*a, **b)\n  File "/home/artadmin/web2py/applications/CodeReviewMachine/controllers/changelist.py", line 14, in add\n    assigned_user = get_random_user()\n  File "/home/artadmin/web2py/applications/CodeReviewMachine/controllers/changelist.py", line 29, in get_random_user\n    return review_assigner.get_next_user(db, auth.user_id)\n  File "applications/CodeReviewMachine/modules/review_assigner.py", line 30, in get_next_user\n    return ra.get_next_user(user_id)\n  File "applications/CodeReviewMachine/modules/review_assigner.py", line 22, in get_next_user\n    self.users=self.db(self.db.auth_user.id!=user_id).select(self.db.auth_user.ALL)\n  File "/home/artadmin/web2py/gluon/dal.py", line 9958, in select\n    return adapter.select(self.query,fields,attributes)\n  File "/home/artadmin/web2py/gluon/dal.py", line 2245, in select\n    return super(SQLiteAdapter, self).select(query, fields, attributes)\n  File "/home/artadmin/web2py/gluon/dal.py", line 1704, in select\n    return self._select_aux(sql,fields,attributes)\n  File "/home/artadmin/web2py/gluon/dal.py", line 1670, in _select_aux\n    rows = self._fetchall()\n  File "/home/artadmin/web2py/gluon/dal.py", line 1663, in _fetchall\n    return self.cursor.fetchall()\nProgrammingError: Cannot operate on a closed database.\n'
p363
s.