(dp1
S'output'
p2
S"<type 'exceptions.AttributeError'> 'DAL' object has no attribute 'person'"
p3
sS'layer'
p4
S'/home/desktop/web2py/applications/CodeReviewMachine/controllers/changelist.py'
p5
sS'code'
p6
S'# coding: utf8\n# try something like\nimport random\ndef index(): return dict(message="hello from changelist.py")\n\n@auth.requires_login()\ndef add_changelist():\n    form = FORM("Add changelist",\n                INPUT(_name="changelist", requires=(IS_MATCH(\'^\\d+$\',error_message=\'Must be a number\') and IS_NOT_IN_DB(db, \'person.name\'))),\n                INPUT(_type="submit", _label=\'Add\'))\n    \n    if form.process().accepted:\n        user_id = get_random_user()\n        db.assigned_reviews.insert(ar_reviewer_id=user_id,ar_changelist=request.vars.tr_changelist)\n        \n        response.flash="Changelist added: " + str(request.vars.changelist) + "\\n Assigned to: " + str(user_id)\n        \n        \n    \n    return dict(form=form)\n\n\ndef get_random_user():\n    users = db().select(db.auth_user.ALL)\n    return users[random.randint(0,len(users)-1)].id\n\nresponse._vars=response._caller(add_changelist)\n'
p7
sS'snapshot'
p8
(dp9
S'exception'
p10
(dp11
S'__hash__'
p12
S"<method-wrapper '__hash__' of exceptions.AttributeError object>"
p13
sS'__setattr__'
p14
S"<method-wrapper '__setattr__' of exceptions.AttributeError object>"
p15
sS'__reduce_ex__'
p16
S'<built-in method __reduce_ex__ of exceptions.AttributeError object>'
p17
sS'__getslice__'
p18
S"<method-wrapper '__getslice__' of exceptions.AttributeError object>"
p19
sS'__getitem__'
p20
S"<method-wrapper '__getitem__' of exceptions.AttributeError object>"
p21
sS'__setstate__'
p22
S'<built-in method __setstate__ of exceptions.AttributeError object>'
p23
sS'__reduce__'
p24
S'<built-in method __reduce__ of exceptions.AttributeError object>'
p25
sS'__str__'
p26
S"<method-wrapper '__str__' of exceptions.AttributeError object>"
p27
sS'__format__'
p28
S'<built-in method __format__ of exceptions.AttributeError object>'
p29
sS'__getattribute__'
p30
S"<method-wrapper '__getattribute__' of exceptions.AttributeError object>"
p31
sS'__class__'
p32
S"<type 'exceptions.AttributeError'>"
p33
sS'__unicode__'
p34
S'<built-in method __unicode__ of exceptions.AttributeError object>'
p35
sS'__delattr__'
p36
S"<method-wrapper '__delattr__' of exceptions.AttributeError object>"
p37
sS'__subclasshook__'
p38
S'<built-in method __subclasshook__ of type object>'
p39
sS'__repr__'
p40
S"<method-wrapper '__repr__' of exceptions.AttributeError object>"
p41
sS'args'
p42
S'("\'DAL\' object has no attribute \'person\'",)'
p43
sS'__dict__'
p44
S'{}'
p45
sS'__sizeof__'
p46
S'<built-in method __sizeof__ of exceptions.AttributeError object>'
p47
sS'__doc__'
p48
S"'Attribute not found.'"
p49
sS'__init__'
p50
S"<method-wrapper '__init__' of exceptions.AttributeError object>"
p51
sS'__new__'
p52
S'<built-in method __new__ of type object>'
p53
ssS'evalue'
p54
S"'DAL' object has no attribute 'person'"
p55
sS'request'
p56
cgluon.html
XML_unpickle
p57
(S's\xb0_\x00\x00<div><table><tr><td style="font-weight:bold;vertical-align:top">ajax</td><td valign="top">:</td><td><div>True</div></td></tr><tr><td style="font-weight:bold;vertical-align:top">application</td><td valign="top">:</td><td><div>CodeReviewMachine</div></td></tr><tr><td style="font-weight:bold;vertical-align:top">args</td><td valign="top">:</td><td><div><table></table></div></td></tr><tr><td style="font-weight:bold;vertical-align:top">body</td><td valign="top">:</td><td><div>&lt;open file &#x27;&lt;fdopen&gt;&#x27;, mode &#x27;w+b&#x27; at 0xafbba5a0&gt;</div></td></tr><tr><td style="font-weight:bold;vertical-align:top">cid</td><td valign="top">:</td><td><div>c117027838067</div></td></tr><tr><td style="font-weight:bold;vertical-align:top">client</td><td valign="top">:</td><td><div>127.0.0.1</div></td></tr><tr><td style="font-weight:bold;vertical-align:top">controller</td><td valign="top">:</td><td><div>changelist</div></td></tr><tr><td style="font-weight:bold;vertical-align:top">cookies</td><td valign="top">:</td><td><div><table><tr><td style="font-weight:bold;vertical-align:top">session_id_admin</td><td valign="top">:</td><td><div>127.0.0.1-9bfca3c4-1e67-4149-ae7d-36385b1556e8<table><tr><td style="font-weight:bold;vertical-align:top">comment</td><td valign="top">:</td><td><div></div></td></tr><tr><td style="font-weight:bold;vertical-align:top">domain</td><td valign="top">:</td><td><div></div></td></tr><tr><td style="font-weight:bold;vertical-align:top">expires</td><td valign="top">:</td><td><div></div></td></tr><tr><td style="font-weight:bold;vertical-align:top">httponly</td><td valign="top">:</td><td><div></div></td></tr><tr><td style="font-weight:bold;vertical-align:top">max-age</td><td valign="top">:</td><td><div></div></td></tr><tr><td style="font-weight:bold;vertical-align:top">path</td><td valign="top">:</td><td><div></div></td></tr><tr><td style="font-weight:bold;vertical-align:top">secure</td><td valign="top">:</td><td><div></div></td></tr><tr><td style="font-weight:bold;vertical-align:top">version</td><td valign="top">:</td><td><div></div></td></tr></table></div></td></tr><tr><td style="font-weight:bold;vertical-align:top">session_id_codereviewmachine</td><td valign="top">:</td><td><div>127.0.0.1-f2ec2a17-968f-420a-a042-4278a0928294<table><tr><td style="font-weight:bold;vertical-align:top">comment</td><td valign="top">:</td><td><div></div></td></tr><tr><td style="font-weight:bold;vertical-align:top">domain</td><td valign="top">:</td><td><div></div></td></tr><tr><td style="font-weight:bold;vertical-align:top">expires</td><td valign="top">:</td><td><div></div></td></tr><tr><td style="font-weight:bold;vertical-align:top">httponly</td><td valign="top">:</td><td><div></div></td></tr><tr><td style="font-weight:bold;vertical-align:top">max-age</td><td valign="top">:</td><td><div></div></td></tr><tr><td style="font-weight:bold;vertical-align:top">path</td><td valign="top">:</td><td><div></div></td></tr><tr><td style="font-weight:bold;vertical-align:top">secure</td><td valign="top">:</td><td><div></div></td></tr><tr><td style="font-weight:bold;vertical-align:top">version</td><td valign="top">:</td><td><div></div></td></tr></table></div></td></tr><tr><td style="font-weight:bold;vertical-align:top">session_id_welcome</td><td valign="top">:</td><td><div>127.0.0.1-756ca035-3ac2-4a4b-bb61-8c5b29fceeb2<table><tr><td style="font-weight:bold;vertical-align:top">comment</td><td valign="top">:</td><td><div></div></td></tr><tr><td style="font-weight:bold;vertical-align:top">domain</td><td valign="top">:</td><td><div></div></td></tr><tr><td style="font-weight:bold;vertical-align:top">expires</td><td valign="top">:</td><td><div></div></td></tr><tr><td style="font-weight:bold;vertical-align:top">httponly</td><td valign="top">:</td><td><div></div></td></tr><tr><td style="font-weight:bold;vertical-align:top">max-age</td><td valign="top">:</td><td><div></div></td></tr><tr><td style="font-weight:bold;vertical-align:top">path</td><td valign="top">:</td><td><div></div></td></tr><tr><td style="font-weight:bold;vertical-align:top">secure</td><td valign="top">:</td><td><div></div></td></tr><tr><td style="font-weight:bold;vertical-align:top">version</td><td valign="top">:</td><td><div></div></td></tr></table></div></td></tr></table></div></td></tr><tr><td style="font-weight:bold;vertical-align:top">env</td><td valign="top">:</td><td><div><table><tr><td style="font-weight:bold;vertical-align:top">app_folders</td><td valign="top">:</td><td><div>set([&#x27;/home/desktop/web2py/applications/admin/&#x27;, &#x27;/home/desktop/web2py/applications/CodeReviewMachine/&#x27;, &#x27;/home/desktop/web2py/applications/welcome/&#x27;])</div></td></tr><tr><td style="font-weight:bold;vertical-align:top">applications_parent</td><td valign="top">:</td><td><div>/home/desktop/web2py</div></td></tr><tr><td style="font-weight:bold;vertical-align:top">cmd_args</td><td valign="top">:</td><td><div><table></table></div></td></tr><tr><td style="font-weight:bold;vertical-align:top">cmd_options</td><td valign="top">:</td><td><div>&lt;Values at 0x97ecfec: {&#x27;verbose&#x27;: False, &#x27;ip&#x27;: &#x27;127.0.0.1&#x27;, &#x27;with_scheduler&#x27;: False, &#x27;ips&#x27;: [&#x27;127.0.1.1&#x27;], &#x27;shutdown_timeout&#x27;: 5, &#x27;taskbar&#x27;: False, &#x27;with_coverage&#x27;: False, &#x27;port&#x27;: 8000, &#x27;maxthreads&#x27;: None, &#x27;softcron&#x27;: False, &#x27;server_name&#x27;: &#x27;desktop-desktop&#x27;, &#x27;bpython&#x27;: False, &#x27;nogui&#x27;: False, &#x27;pid_filename&#x27;: &#x27;httpserver.pid&#x27;, &#x27;extcron&#x27;: False, &#x27;runcron&#x27;: False, &#x27;run_system_tests&#x27;: False, &#x27;test&#x27;: None, &#x27;folder&#x27;: &#x27;/home/desktop/web2py&#x27;, &#x27;config&#x27;: &#x27;&#x27;, &#x27;import_models&#x27;: False, &#x27;winservice&#x27;: &#x27;&#x27;, &#x27;shell&#x27;: None, &#x27;run&#x27;: &#x27;&#x27;, &#x27;log_filename&#x27;: &#x27;httpserver.log&#x27;, &#x27;debuglevel&#x27;: 30, &#x27;args&#x27;: [&#x27;&#x27;], &#x27;socket_timeout&#x27;: 5, &#x27;ssl_ca_certificate&#x27;: None, &#x27;scheduler&#x27;: None, &#x27;profiler_filename&#x27;: None, &#x27;ssl_private_key&#x27;: &#x27;&#x27;, &#x27;scheduler_groups&#x27;: None, &#x27;password&#x27;: &#x27;admin&#x27;, &#x27;request_queue_size&#x27;: 5, &#x27;ssl_certificate&#x27;: &#x27;&#x27;, &#x27;cronjob&#x27;: False, &#x27;numthreads&#x27;: None, &#x27;quiet&#x27;: False, &#x27;interfaces&#x27;: None, &#x27;minthreads&#x27;: None, &#x27;timeout&#x27;: 10, &#x27;plain&#x27;: False, &#x27;nobanner&#x27;: False}&gt;</div></td></tr><tr><td style="font-weight:bold;vertical-align:top">content_length</td><td valign="top">:</td><td><div>78</div></td></tr><tr><td style="font-weight:bold;vertical-align:top">content_type</td><td valign="top">:</td><td><div>application/x-www-form-urlencoded; charset=UTF-8</div></td></tr><tr><td style="font-weight:bold;vertical-align:top">db_sessions</td><td valign="top">:</td><td><div>set([])</div></td></tr><tr><td style="font-weight:bold;vertical-align:top">debugging</td><td valign="top">:</td><td><div>True</div></td></tr><tr><td style="font-weight:bold;vertical-align:top">gluon_parent</td><td valign="top">:</td><td><div>/home/desktop/web2py</div></td></tr><tr><td style="font-weight:bold;vertical-align:top">http_accept</td><td valign="top">:</td><td><div>*/*</div></td></tr><tr><td style="font-weight:bold;vertical-align:top">http_accept_encoding</td><td valign="top">:</td><td><div>gzip,deflate,sdch</div></td></tr><tr><td style="font-weight:bold;vertical-align:top">http_accept_language</td><td valign="top">:</td><td><div>en-US,en;q=0.8,hu;q=0.6</div></td></tr><tr><td style="font-weight:bold;vertical-align:top">http_connection</td><td valign="top">:</td><td><div>keep-alive</div></td></tr><tr><td style="font-weight:bold;vertical-align:top">http_content_length</td><td valign="top">:</td><td><div>78</div></td></tr><tr><td style="font-weight:bold;vertical-align:top">http_content_type</td><td valign="top">:</td><td><div>application/x-www-form-urlencoded; charset=UTF-8</div></td></tr><tr><td style="font-weight:bold;vertical-align:top">http_cookie</td><td valign="top">:</td><td><div>session_id_welcome=127.0.0.1-756ca035-3ac2-4a4b-bb61-8c5b29fceeb2; session_id_admin=127.0.0.1-9bfca3c4-1e67-4149-ae7d-36385b1556e8; session_id_codereviewmachine=127.0.0.1-f2ec2a17-968f-420a-a042-4278a0928294</div></td></tr><tr><td style="font-weight:bold;vertical-align:top">http_host</td><td valign="top">:</td><td><div>localhost:8000</div></td></tr><tr><td style="font-weight:bold;vertical-align:top">http_origin</td><td valign="top">:</td><td><div>http://localhost:8000</div></td></tr><tr><td style="font-weight:bold;vertical-align:top">http_referer</td><td valign="top">:</td><td><div>http://localhost:8000/CodeReviewMachine/default/index</div></td></tr><tr><td style="font-weight:bold;vertical-align:top">http_user_agent</td><td valign="top">:</td><td><div>Mozilla/5.0 (X11; Linux i686) AppleWebKit/537.36 (KHTML, like Gecko) Chrome/28.0.1500.52 Safari/537.36</div></td></tr><tr><td style="font-weight:bold;vertical-align:top">http_web2py_component_element</td><td valign="top">:</td><td><div>c117027838067</div></td></tr><tr><td style="font-weight:bold;vertical-align:top">http_web2py_component_location</td><td valign="top">:</td><td><div>http://localhost:8000/CodeReviewMachine/default/index#</div></td></tr><tr><td style="font-weight:bold;vertical-align:top">http_x_requested_with</td><td valign="top">:</td><td><div>XMLHttpRequest</div></td></tr><tr><td style="font-weight:bold;vertical-align:top">is_jython</td><td valign="top">:</td><td><div>False</div></td></tr><tr><td style="font-weight:bold;vertical-align:top">is_pypy</td><td valign="top">:</td><td><div>False</div></td></tr><tr><td style="font-weight:bold;vertical-align:top">local_hosts</td><td valign="top">:</td><td><div><table><tr><td><div>desktop-desktop</div></td></tr><tr><td><div>::1</div></td></tr><tr><td><div>127.0.1.1</div></td></tr><tr><td><div>::ffff:127.0.0.1</div></td></tr><tr><td><div>127.0.0.1</div></td></tr></table></div></td></tr><tr><td style="font-weight:bold;vertical-align:top">path_info</td><td valign="top">:</td><td><div>/CodeReviewMachine/changelist/add_changelist.load</div></td></tr><tr><td style="font-weight:bold;vertical-align:top">query_string</td><td valign="top">:</td><td><div>_signature=508cdeef81d3b7de5b22b4c615da15c2f939be49</div></td></tr><tr><td style="font-weight:bold;vertical-align:top">remote_addr</td><td valign="top">:</td><td><div>127.0.0.1</div></td></tr><tr><td style="font-weight:bold;vertical-align:top">remote_port</td><td valign="top">:</td><td><div>57160</div></td></tr><tr><td style="font-weight:bold;vertical-align:top">request_method</td><td valign="top">:</td><td><div>POST</div></td></tr><tr><td style="font-weight:bold;vertical-align:top">request_uri</td><td valign="top">:</td><td><div>/CodeReviewMachine/changelist/add_changelist.load?_signature=508cdeef81d3b7de5b22b4c615da15c2f939be49</div></td></tr><tr><td style="font-weight:bold;vertical-align:top">script_name</td><td valign="top">:</td><td><div></div></td></tr><tr><td style="font-weight:bold;vertical-align:top">server_name</td><td valign="top">:</td><td><div>desktop-desktop</div></td></tr><tr><td style="font-weight:bold;vertical-align:top">server_port</td><td valign="top">:</td><td><div>8000</div></td></tr><tr><td style="font-weight:bold;vertical-align:top">server_protocol</td><td valign="top">:</td><td><div>HTTP/1.1</div></td></tr><tr><td style="font-weight:bold;vertical-align:top">server_software</td><td valign="top">:</td><td><div>Rocket 1.2.6</div></td></tr><tr><td style="font-weight:bold;vertical-align:top">web2py_path</td><td valign="top">:</td><td><div>/home/desktop/web2py</div></td></tr><tr><td style="font-weight:bold;vertical-align:top">web2py_version</td><td valign="top">:</td><td><div>2.4.7-stable+timestamp.2013.05.24.17.48.47</div></td></tr><tr><td style="font-weight:bold;vertical-align:top">wsgi_errors</td><td valign="top">:</td><td><div>&lt;open file &#x27;&lt;stderr&gt;&#x27;, mode &#x27;w&#x27; at 0xb753e0d0&gt;</div></td></tr><tr><td style="font-weight:bold;vertical-align:top">wsgi_file_wrapper</td><td valign="top">:</td><td><div>&lt;class wsgiref.util.FileWrapper at 0x95c2b3c&gt;</div></td></tr><tr><td style="font-weight:bold;vertical-align:top">wsgi_input</td><td valign="top">:</td><td><div>&lt;socket._fileobject object at 0xafbbc7ec&gt;</div></td></tr><tr><td style="font-weight:bold;vertical-align:top">wsgi_multiprocess</td><td valign="top">:</td><td><div>False</div></td></tr><tr><td style="font-weight:bold;vertical-align:top">wsgi_multithread</td><td valign="top">:</td><td><div>True</div></td></tr><tr><td style="font-weight:bold;vertical-align:top">wsgi_run_once</td><td valign="top">:</td><td><div>False</div></td></tr><tr><td style="font-weight:bold;vertical-align:top">wsgi_url_scheme</td><td valign="top">:</td><td><div>http</div></td></tr><tr><td style="font-weight:bold;vertical-align:top">wsgi_version</td><td valign="top">:</td><td><div><table><tr><td><div>1</div></td></tr><tr><td><div>0</div></td></tr></table></div></td></tr></table></div></td></tr><tr><td style="font-weight:bold;vertical-align:top">extension</td><td valign="top">:</td><td><div>load</div></td></tr><tr><td style="font-weight:bold;vertical-align:top">folder</td><td valign="top">:</td><td><div>/home/desktop/web2py/applications/CodeReviewMachine/</div></td></tr><tr><td style="font-weight:bold;vertical-align:top">function</td><td valign="top">:</td><td><div>add_changelist</div></td></tr><tr><td style="font-weight:bold;vertical-align:top">get_vars</td><td valign="top">:</td><td><div><table></table></div></td></tr><tr><td style="font-weight:bold;vertical-align:top">global_settings</td><td valign="top">:</td><td><div><table><tr><td style="font-weight:bold;vertical-align:top">app_folders</td><td valign="top">:</td><td><div>set([&#x27;/home/desktop/web2py/applications/admin/&#x27;, &#x27;/home/desktop/web2py/applications/CodeReviewMachine/&#x27;, &#x27;/home/desktop/web2py/applications/welcome/&#x27;])</div></td></tr><tr><td style="font-weight:bold;vertical-align:top">applications_parent</td><td valign="top">:</td><td><div>/home/desktop/web2py</div></td></tr><tr><td style="font-weight:bold;vertical-align:top">cmd_args</td><td valign="top">:</td><td><div><table></table></div></td></tr><tr><td style="font-weight:bold;vertical-align:top">cmd_options</td><td valign="top">:</td><td><div>&lt;Values at 0x97ecfec: {&#x27;verbose&#x27;: False, &#x27;ip&#x27;: &#x27;127.0.0.1&#x27;, &#x27;with_scheduler&#x27;: False, &#x27;ips&#x27;: [&#x27;127.0.1.1&#x27;], &#x27;shutdown_timeout&#x27;: 5, &#x27;taskbar&#x27;: False, &#x27;with_coverage&#x27;: False, &#x27;port&#x27;: 8000, &#x27;maxthreads&#x27;: None, &#x27;softcron&#x27;: False, &#x27;server_name&#x27;: &#x27;desktop-desktop&#x27;, &#x27;bpython&#x27;: False, &#x27;nogui&#x27;: False, &#x27;pid_filename&#x27;: &#x27;httpserver.pid&#x27;, &#x27;extcron&#x27;: False, &#x27;runcron&#x27;: False, &#x27;run_system_tests&#x27;: False, &#x27;test&#x27;: None, &#x27;folder&#x27;: &#x27;/home/desktop/web2py&#x27;, &#x27;config&#x27;: &#x27;&#x27;, &#x27;import_models&#x27;: False, &#x27;winservice&#x27;: &#x27;&#x27;, &#x27;shell&#x27;: None, &#x27;run&#x27;: &#x27;&#x27;, &#x27;log_filename&#x27;: &#x27;httpserver.log&#x27;, &#x27;debuglevel&#x27;: 30, &#x27;args&#x27;: [&#x27;&#x27;], &#x27;socket_timeout&#x27;: 5, &#x27;ssl_ca_certificate&#x27;: None, &#x27;scheduler&#x27;: None, &#x27;profiler_filename&#x27;: None, &#x27;ssl_private_key&#x27;: &#x27;&#x27;, &#x27;scheduler_groups&#x27;: None, &#x27;password&#x27;: &#x27;admin&#x27;, &#x27;request_queue_size&#x27;: 5, &#x27;ssl_certificate&#x27;: &#x27;&#x27;, &#x27;cronjob&#x27;: False, &#x27;numthreads&#x27;: None, &#x27;quiet&#x27;: False, &#x27;interfaces&#x27;: None, &#x27;minthreads&#x27;: None, &#x27;timeout&#x27;: 10, &#x27;plain&#x27;: False, &#x27;nobanner&#x27;: False}&gt;</div></td></tr><tr><td style="font-weight:bold;vertical-align:top">db_sessions</td><td valign="top">:</td><td><div>set([])</div></td></tr><tr><td style="font-weight:bold;vertical-align:top">debugging</td><td valign="top">:</td><td><div>True</div></td></tr><tr><td style="font-weight:bold;vertical-align:top">gluon_parent</td><td valign="top">:</td><td><div>/home/desktop/web2py</div></td></tr><tr><td style="font-weight:bold;vertical-align:top">is_jython</td><td valign="top">:</td><td><div>False</div></td></tr><tr><td style="font-weight:bold;vertical-align:top">is_pypy</td><td valign="top">:</td><td><div>False</div></td></tr><tr><td style="font-weight:bold;vertical-align:top">local_hosts</td><td valign="top">:</td><td><div><table><tr><td><div>desktop-desktop</div></td></tr><tr><td><div>::1</div></td></tr><tr><td><div>127.0.1.1</div></td></tr><tr><td><div>::ffff:127.0.0.1</div></td></tr><tr><td><div>127.0.0.1</div></td></tr></table></div></td></tr><tr><td style="font-weight:bold;vertical-align:top">web2py_version</td><td valign="top">:</td><td><div>2.4.7-stable+timestamp.2013.05.24.17.48.47</div></td></tr></table></div></td></tr><tr><td style="font-weight:bold;vertical-align:top">is_https</td><td valign="top">:</td><td><div>False</div></td></tr><tr><td style="font-weight:bold;vertical-align:top">is_local</td><td valign="top">:</td><td><div>True</div></td></tr><tr><td style="font-weight:bold;vertical-align:top">is_restful</td><td valign="top">:</td><td><div>False</div></td></tr><tr><td style="font-weight:bold;vertical-align:top">now</td><td valign="top">:</td><td><div>datetime.datetime(2013, 7, 27, 8, 29, 57, 541153)</div></td></tr><tr><td style="font-weight:bold;vertical-align:top">post_vars</td><td valign="top">:</td><td><div><table><tr><td style="font-weight:bold;vertical-align:top">changelist</td><td valign="top">:</td><td><div>123</div></td></tr></table></div></td></tr><tr><td style="font-weight:bold;vertical-align:top">raw_args</td><td valign="top">:</td><td><div></div></td></tr><tr><td style="font-weight:bold;vertical-align:top">raw_extension</td><td valign="top">:</td><td><div>load</div></td></tr><tr><td style="font-weight:bold;vertical-align:top">url</td><td valign="top">:</td><td><div>/CodeReviewMachine/changelist/add_changelist.load</div></td></tr><tr><td style="font-weight:bold;vertical-align:top">utcnow</td><td valign="top">:</td><td><div>datetime.datetime(2013, 7, 27, 6, 29, 57, 541172)</div></td></tr><tr><td style="font-weight:bold;vertical-align:top">uuid</td><td valign="top">:</td><td><div>CodeReviewMachine/127.0.0.1.2013-07-27.08-29-57.f8039fa8-db48-43a2-ac70-6fa358470114</div></td></tr><tr><td style="font-weight:bold;vertical-align:top">vars</td><td valign="top">:</td><td><div><table><tr><td style="font-weight:bold;vertical-align:top">changelist</td><td valign="top">:</td><td><div>123</div></td></tr></table></div></td></tr><tr><td style="font-weight:bold;vertical-align:top">wsgi</td><td valign="top">:</td><td><div><table><tr><td style="font-weight:bold;vertical-align:top">environ</td><td valign="top">:</td><td><div><table><tr><td style="font-weight:bold;vertical-align:top">CONTENT_LENGTH</td><td valign="top">:</td><td><div>78</div></td></tr><tr><td style="font-weight:bold;vertical-align:top">CONTENT_TYPE</td><td valign="top">:</td><td><div>application/x-www-form-urlencoded; charset=UTF-8</div></td></tr><tr><td style="font-weight:bold;vertical-align:top">HTTP_ACCEPT</td><td valign="top">:</td><td><div>*/*</div></td></tr><tr><td style="font-weight:bold;vertical-align:top">HTTP_ACCEPT_ENCODING</td><td valign="top">:</td><td><div>gzip,deflate,sdch</div></td></tr><tr><td style="font-weight:bold;vertical-align:top">HTTP_ACCEPT_LANGUAGE</td><td valign="top">:</td><td><div>en-US,en;q=0.8,hu;q=0.6</div></td></tr><tr><td style="font-weight:bold;vertical-align:top">HTTP_CONNECTION</td><td valign="top">:</td><td><div>keep-alive</div></td></tr><tr><td style="font-weight:bold;vertical-align:top">HTTP_CONTENT_LENGTH</td><td valign="top">:</td><td><div>78</div></td></tr><tr><td style="font-weight:bold;vertical-align:top">HTTP_CONTENT_TYPE</td><td valign="top">:</td><td><div>application/x-www-form-urlencoded; charset=UTF-8</div></td></tr><tr><td style="font-weight:bold;vertical-align:top">HTTP_COOKIE</td><td valign="top">:</td><td><div>session_id_welcome=127.0.0.1-756ca035-3ac2-4a4b-bb61-8c5b29fceeb2; session_id_admin=127.0.0.1-9bfca3c4-1e67-4149-ae7d-36385b1556e8; session_id_codereviewmachine=127.0.0.1-f2ec2a17-968f-420a-a042-4278a0928294</div></td></tr><tr><td style="font-weight:bold;vertical-align:top">HTTP_HOST</td><td valign="top">:</td><td><div>localhost:8000</div></td></tr><tr><td style="font-weight:bold;vertical-align:top">HTTP_ORIGIN</td><td valign="top">:</td><td><div>http://localhost:8000</div></td></tr><tr><td style="font-weight:bold;vertical-align:top">HTTP_REFERER</td><td valign="top">:</td><td><div>http://localhost:8000/CodeReviewMachine/default/index</div></td></tr><tr><td style="font-weight:bold;vertical-align:top">HTTP_USER_AGENT</td><td valign="top">:</td><td><div>Mozilla/5.0 (X11; Linux i686) AppleWebKit/537.36 (KHTML, like Gecko) Chrome/28.0.1500.52 Safari/537.36</div></td></tr><tr><td style="font-weight:bold;vertical-align:top">HTTP_WEB2PY_COMPONENT_ELEMENT</td><td valign="top">:</td><td><div>c117027838067</div></td></tr><tr><td style="font-weight:bold;vertical-align:top">HTTP_WEB2PY_COMPONENT_LOCATION</td><td valign="top">:</td><td><div>http://localhost:8000/CodeReviewMachine/default/index#</div></td></tr><tr><td style="font-weight:bold;vertical-align:top">HTTP_X_REQUESTED_WITH</td><td valign="top">:</td><td><div>XMLHttpRequest</div></td></tr><tr><td style="font-weight:bold;vertical-align:top">PATH_INFO</td><td valign="top">:</td><td><div>/CodeReviewMachine/changelist/add_changelist.load</div></td></tr><tr><td style="font-weight:bold;vertical-align:top">QUERY_STRING</td><td valign="top">:</td><td><div>_signature=508cdeef81d3b7de5b22b4c615da15c2f939be49</div></td></tr><tr><td style="font-weight:bold;vertical-align:top">REMOTE_ADDR</td><td valign="top">:</td><td><div>127.0.0.1</div></td></tr><tr><td style="font-weight:bold;vertical-align:top">REMOTE_PORT</td><td valign="top">:</td><td><div>57160</div></td></tr><tr><td style="font-weight:bold;vertical-align:top">REQUEST_METHOD</td><td valign="top">:</td><td><div>POST</div></td></tr><tr><td style="font-weight:bold;vertical-align:top">REQUEST_URI</td><td valign="top">:</td><td><div>/CodeReviewMachine/changelist/add_changelist.load?_signature=508cdeef81d3b7de5b22b4c615da15c2f939be49</div></td></tr><tr><td style="font-weight:bold;vertical-align:top">SCRIPT_NAME</td><td valign="top">:</td><td><div></div></td></tr><tr><td style="font-weight:bold;vertical-align:top">SERVER_NAME</td><td valign="top">:</td><td><div>desktop-desktop</div></td></tr><tr><td style="font-weight:bold;vertical-align:top">SERVER_PORT</td><td valign="top">:</td><td><div>8000</div></td></tr><tr><td style="font-weight:bold;vertical-align:top">SERVER_PROTOCOL</td><td valign="top">:</td><td><div>HTTP/1.1</div></td></tr><tr><td style="font-weight:bold;vertical-align:top">SERVER_SOFTWARE</td><td valign="top">:</td><td><div>Rocket 1.2.6</div></td></tr><tr><td style="font-weight:bold;vertical-align:top">wsgi.errors</td><td valign="top">:</td><td><div>&lt;open file &#x27;&lt;stderr&gt;&#x27;, mode &#x27;w&#x27; at 0xb753e0d0&gt;</div></td></tr><tr><td style="font-weight:bold;vertical-align:top">wsgi.file_wrapper</td><td valign="top">:</td><td><div>&lt;class wsgiref.util.FileWrapper at 0x95c2b3c&gt;</div></td></tr><tr><td style="font-weight:bold;vertical-align:top">wsgi.input</td><td valign="top">:</td><td><div>&lt;open file &#x27;&lt;fdopen&gt;&#x27;, mode &#x27;w+b&#x27; at 0xafbba5a0&gt;</div></td></tr><tr><td style="font-weight:bold;vertical-align:top">wsgi.multiprocess</td><td valign="top">:</td><td><div>False</div></td></tr><tr><td style="font-weight:bold;vertical-align:top">wsgi.multithread</td><td valign="top">:</td><td><div>True</div></td></tr><tr><td style="font-weight:bold;vertical-align:top">wsgi.run_once</td><td valign="top">:</td><td><div>False</div></td></tr><tr><td style="font-weight:bold;vertical-align:top">wsgi.url_scheme</td><td valign="top">:</td><td><div>http</div></td></tr><tr><td style="font-weight:bold;vertical-align:top">wsgi.version</td><td valign="top">:</td><td><div>1</div></td></tr></table></div></td></tr></table></div></td></tr></table></div>'
tRp58
sS'frames'
p59
(lp60
(dp61
S'file'
p62
S'/home/desktop/web2py/gluon/restricted.py'
p63
sS'dump'
p64
(dp65
S'environment'
p66
S"{'A': <class 'gluon.html.A'>, 'ANY_OF': <class 'gluon.validators.ANY_OF'>, 'Auth': <class 'gluon.tools.Auth'>, 'B': <class 'gluon.html.B'>, 'BEAUTIFY': <class 'gluon.html.BEAUTIFY'>, 'BODY': <class 'gluon.html.BODY'>, 'BR': <class 'gluon.html.BR'>, 'BUTTON': <class 'gluon.html.BUTTON'>, 'CAT': <class 'gluon.html.CAT'>, 'CENTER': <class 'gluon.html.CENTER'>, ...}"
p67
sS'ccode'
p68
S'<code object <module> at 0xaf682968, file "/home...ReviewMachine/controllers/changelist.py", line 3>'
p69
ssS'lnum'
p70
I212
sS'lines'
p71
(dp72
I207
S'    try:'
p73
sI208
S'        if isinstance(code, types.CodeType):'
p74
sI209
S'            ccode = code'
p75
sI210
S'        else:'
p76
sI211
S'            ccode = compile2(code, layer)'
p77
sI212
S'        exec ccode in environment'
p78
sI213
S'    except HTTP:'
p79
sI214
S'        raise'
p80
sI215
S'    except RestrictedError:'
p81
sI216
S'        # do not encapsulate (obfuscate) the original RestrictedError'
p82
ssS'call'
p83
S"(code='# coding: utf8\\n# try something like\\nimport rando...\\nresponse._vars=response._caller(add_changelist)\\n', environment={'A': <class 'gluon.html.A'>, 'ANY_OF': <class 'gluon.validators.ANY_OF'>, 'Auth': <class 'gluon.tools.Auth'>, 'B': <class 'gluon.html.B'>, 'BEAUTIFY': <class 'gluon.html.BEAUTIFY'>, 'BODY': <class 'gluon.html.BODY'>, 'BR': <class 'gluon.html.BR'>, 'BUTTON': <class 'gluon.html.BUTTON'>, 'CAT': <class 'gluon.html.CAT'>, 'CENTER': <class 'gluon.html.CENTER'>, ...}, layer='/home/desktop/web2py/applications/CodeReviewMachine/controllers/changelist.py')"
p84
sS'func'
p85
S'restricted'
p86
sa(dp87
g62
S'/home/desktop/web2py/applications/CodeReviewMachine/controllers/changelist.py'
p88
sg64
(dp89
sg70
I27
sg71
(dp90
I16
S'        response.flash="Changelist added: " + str(request.vars.changelist) + "\\n Assigned to: " + str(user_id)'
p91
sI17
S''
sI18
S''
sI19
S''
sI20
S'    return dict(form=form)'
p92
sI21
S''
sI22
S''
sI23
S'def get_random_user():'
p93
sI24
S'    users = db().select(db.auth_user.ALL)'
p94
sI25
S'    return users[random.randint(0,len(users)-1)].id'
p95
ssg83
S'()'
p96
sg85
S'<module>'
p97
sa(dp98
g62
S'/home/desktop/web2py/gluon/globals.py'
p99
sg64
(dp100
S'self'
p101
S'undefined'
p102
sS'f'
S'<function add_changelist>'
p103
ssg70
I194
sg71
(dp104
I192
S"        self.delimiters = ('{{', '}}')"
p105
sI193
S'        self._vars = None'
p106
sI194
S'        self._caller = lambda f: f()'
p107
sI195
S'        self._view_environment = None'
p108
sI196
S'        self._custom_commit = None'
p109
sI197
S'        self._custom_rollback = None'
p110
sI198
S''
sI189
S'        self.menu = []             # used by the default view layout'
p111
sI190
S'        self.files = []            # used by web2py_ajax.html'
p112
sI191
S'        self.generic_patterns = []  # patterns to allow generic views'
p113
ssg83
S'(f=<function add_changelist>)'
p114
sg85
S'<lambda>'
p115
sa(dp116
g62
S'/home/desktop/web2py/gluon/tools.py'
p117
sg64
(dp118
S'action'
p119
S'<function add_changelist>'
p120
sS'a'
S'()'
p121
sS'b'
g45
ssg70
I3021
sg71
(dp122
I3016
S'                    flag = condition'
p123
sI3017
S'                if not flag:'
p124
sI3018
S'                    current.session.flash = self.messages.access_denied'
p125
sI3019
S'                    return call_or_redirect('
p126
sI3020
S'                        self.settings.on_failed_authorization)'
p127
sI3021
S'                return action(*a, **b)'
p128
sI3022
S'            f.__doc__ = action.__doc__'
p129
sI3023
S'            f.__name__ = action.__name__'
p130
sI3024
S'            f.__dict__.update(action.__dict__)'
p131
sI3025
S'            return f'
p132
ssg83
S'(*a=(), **b={})'
p133
sg85
S'f'
sa(dp134
g62
S'/home/desktop/web2py/applications/CodeReviewMachine/controllers/changelist.py'
p135
sg64
(dp136
S'form.process'
p137
S'<bound method FORM.process of <gluon.html.FORM object>>'
p138
sS').accepted'
p139
g102
sS'form'
p140
S'<gluon.html.FORM object>'
p141
ssg70
I12
sg71
(dp142
I7
S'def add_changelist():'
p143
sI8
S'    form = FORM("Add changelist",'
p144
sI9
S'                INPUT(_name="changelist", requires=(IS_MATCH(\'^\\d+$\',error_message=\'Must be a number\') and IS_NOT_IN_DB(db, \'person.name\'))),'
p145
sI10
S'                INPUT(_type="submit", _label=\'Add\'))'
p146
sI11
S''
sI12
S'    if form.process().accepted:'
p147
sI13
S'        user_id = get_random_user()'
p148
sI14
S'        db.assigned_reviews.insert(ar_reviewer_id=user_id,ar_changelist=request.vars.tr_changelist)'
p149
sI15
S''
sI16
S'        response.flash="Changelist added: " + str(request.vars.changelist) + "\\n Assigned to: " + str(user_id)'
p150
ssg83
S'()'
p151
sg85
S'add_changelist'
p152
sa(dp153
g62
S'/home/desktop/web2py/gluon/html.py'
p154
sg64
(dp155
S'self'
p156
S'<gluon.html.FORM object>'
p157
sS'self.validate'
p158
S'<bound method FORM.validate of <gluon.html.FORM object>>'
p159
sS'kwargs'
p160
S"{'dbio': True}"
p161
ssg70
I2185
sg71
(dp162
I2180
S'        def action():'
p163
sI2181
S'            return dict(form=SQLFORM(db.table).process(onsuccess=my_callback)'
p164
sI2182
S'        """'
p165
sI2183
S"        kwargs['dbio'] = kwargs.get('dbio', True)"
p166
sI2184
S'                                    # necessary for SQLHTML forms'
p167
sI2185
S'        self.validate(**kwargs)'
p168
sI2186
S'        return self'
p169
sI2187
S''
sI2188
S'    REDIRECT_JS = "window.location=\'%s\';return false"'
p170
sI2189
S''
ssg83
S"(self=<gluon.html.FORM object>, **kwargs={'dbio': True})"
p171
sg85
S'process'
p172
sa(dp173
g62
S'/home/desktop/web2py/gluon/html.py'
p174
sg64
(dp175
S'self'
p176
S'<gluon.html.FORM object>'
p177
sS'self.accepts'
p178
S'<bound method FORM.accepts of <gluon.html.FORM object>>'
p179
sS'kwargs'
p180
S"{'dbio': True, 'request_vars': <Storage {'_formkey': 'f53c804f-0592-4908-98e0-b...a', '_formname': 'default', 'changelist': '123'}>, 'session': <Storage {'_user_agent': {'is_mobile': False, 'i...login]': '7ef13e85-248b-4de3-b71d-7a840e3b1957'}>}"
p181
ssg70
I2124
sg71
(dp182
I2119
S"        for key in ('message_onsuccess', 'message_onfailure', 'onsuccess',"
p183
sI2120
S"                    'onfailure', 'next', 'message_onchange', 'onchange'):"
p184
sI2121
S'            if key in kwargs:'
p185
sI2122
S'                del kwargs[key]'
p186
sI2123
S''
sI2124
S'        if self.accepts(**kwargs):'
p187
sI2125
S"            if onsuccess == 'flash':"
p188
sI2126
S'                if next:'
p189
sI2127
S'                    current.session.flash = message_onsuccess'
p190
sI2128
S'                else:'
p191
ssg83
S"(self=<gluon.html.FORM object>, **kwargs={'dbio': True, 'request_vars': <Storage {'_formkey': 'f53c804f-0592-4908-98e0-b...a', '_formname': 'default', 'changelist': '123'}>, 'session': <Storage {'_user_agent': {'is_mobile': False, 'i...login]': '7ef13e85-248b-4de3-b71d-7a840e3b1957'}>})"
p192
sg85
S'validate'
p193
sa(dp194
g62
S'/home/desktop/web2py/gluon/html.py'
p195
sg64
(dp196
S'status'
p197
S'True'
p198
sS'self'
p199
S'<gluon.html.FORM object>'
p200
sS'self._traverse'
p201
S'<bound method FORM._traverse of <gluon.html.FORM object>>'
p202
sS'hideerror'
p203
S'False'
p204
ssg70
I2007
sg71
(dp205
I2002
S'        if status and session:'
p206
sI2003
S'            # check if editing a record that has been modified by the server'
p207
sI2004
S"            if hasattr(self, 'record_hash') and self.record_hash != formkey:"
p208
sI2005
S'                status = False'
p209
sI2006
S'                self.record_changed = changed = True'
p210
sI2007
S'        status = self._traverse(status, hideerror)'
p211
sI2008
S'        status = self.assert_status(status, request_vars)'
p212
sI2009
S'        if onvalidation:'
p213
sI2010
S'            if isinstance(onvalidation, dict):'
p214
sI2011
S"                onsuccess = onvalidation.get('onsuccess', None)"
p215
ssg83
S"(self=<gluon.html.FORM object>, request_vars=<Storage {'_formkey': 'f53c804f-0592-4908-98e0-b...a', '_formname': 'default', 'changelist': '123'}>, session=<Storage {'_user_agent': {'is_mobile': False, 'i...login]': '7ef13e85-248b-4de3-b71d-7a840e3b1957'}>, formname='default', keepvalues=False, onvalidation=None, hideerror=False, **kwargs={'dbio': True})"
p216
sg85
S'accepts'
p217
sa(dp218
g62
S'/home/desktop/web2py/gluon/html.py'
p219
sg64
(dp220
S'status'
p221
g198
sS'newstatus'
p222
g198
sS'c'
S'<gluon.html.INPUT object>'
p223
sS'hideerror'
p224
g204
sS'c._traverse'
p225
S'<bound method INPUT._traverse of <gluon.html.INPUT object>>'
p226
ssg70
I846
sg71
(dp227
I841
S'                c.latest = self.latest'
p228
sI842
S'                c.session = self.session'
p229
sI843
S'                c.formname = self.formname'
p230
sI844
S"                c['hideerror'] = hideerror or \\"
p231
sI845
S"                        self.attributes.get('hideerror', False)"
p232
sI846
S'                newstatus = c._traverse(status, hideerror) and newstatus'
p233
sI847
S''
sI848
S'        # for input, textarea, select, option'
p234
sI849
S"        # deal with 'value' and 'validation'"
p235
sI850
S''
ssg83
S'(self=<gluon.html.FORM object>, status=True, hideerror=False)'
p236
sg85
S'_traverse'
p237
sa(dp238
g62
S'/home/desktop/web2py/gluon/html.py'
p239
sg64
(dp240
S'newstatus'
p241
g198
sS'self'
p242
S'<gluon.html.INPUT object>'
p243
sS'self._validate'
p244
S'<bound method INPUT._validate of <gluon.html.INPUT object>>'
p245
ssg70
I853
sg71
(dp246
I848
S'        # for input, textarea, select, option'
p247
sI849
S"        # deal with 'value' and 'validation'"
p248
sI850
S''
sI851
S"        name = self['_name']"
p249
sI852
S'        if newstatus:'
p250
sI853
S'            newstatus = self._validate()'
p251
sI854
S'            self._postprocessing()'
p252
sI855
S"        elif 'old_value' in self.attributes:"
p253
sI856
S"            self['value'] = self['old_value']"
p254
sI857
S'            self._postprocessing()'
p255
ssg83
S'(self=<gluon.html.INPUT object>, status=True, hideerror=False)'
p256
sg85
g237
sa(dp257
g62
S'/home/desktop/web2py/gluon/html.py'
p258
sg64
(dp259
S'errors'
p260
g102
sS'value'
p261
S"'123'"
p262
sS'validator'
p263
S'<gluon.validators.IS_NOT_IN_DB object>'
p264
ssg70
I1756
sg71
(dp265
I1760
S'                    break'
p266
sI1751
S"        requires = self['requires']"
p267
sI1752
S'        if requires:'
p268
sI1753
S'            if not isinstance(requires, (list, tuple)):'
p269
sI1754
S'                requires = [requires]'
p270
sI1755
S'            for validator in requires:'
p271
sI1756
S'                (value, errors) = validator(value)'
p272
sI1757
S'                if not errors is None:'
p273
sI1758
S'                    self.vars[name] = value'
p274
sI1759
S'                    self.errors[name] = errors'
p275
ssg83
S'(self=<gluon.html.INPUT object>)'
p276
sg85
S'_validate'
p277
sa(dp278
g62
S'/home/desktop/web2py/gluon/validators.py'
p279
sg64
(dp280
S'self.dbset'
p281
S'<Set None>'
p282
sS'table'
p283
g102
sS'self'
p284
S'<gluon.validators.IS_NOT_IN_DB object>'
p285
sS'self.dbset.db'
p286
S'<DAL uri="sqlite://storage.sqlite">'
p287
sS'tablename'
p288
S"'person'"
p289
ssg70
I645
sg71
(dp290
I640
S'        if not value.strip():'
p291
sI641
S'            return (value, translate(self.error_message))'
p292
sI642
S'        if value in self.allowed_override:'
p293
sI643
S'            return (value, None)'
p294
sI644
S"        (tablename, fieldname) = str(self.field).split('.')"
p295
sI645
S'        table = self.dbset.db[tablename]'
p296
sI646
S'        field = table[fieldname]'
p297
sI647
S'        subset = self.dbset(field == value,'
p298
sI648
S'                            ignore_common_filters=self.ignore_common_filters)'
p299
sI649
S'        id = self.record_id'
p300
ssg83
S"(self=<gluon.validators.IS_NOT_IN_DB object>, value='123')"
p301
sg85
S'__call__'
p302
sa(dp303
g62
S'/home/desktop/web2py/gluon/dal.py'
p304
sg64
(dp305
S'builtinstr'
p306
S"<type 'str'>"
p307
sS'self.__getattr__'
p308
S'<bound method DAL.__getattr__ of <DAL uri="sqlite://storage.sqlite">>'
p309
sS'self'
p310
S'<DAL uri="sqlite://storage.sqlite">'
p311
sS'key'
p312
S"'person'"
p313
ssg70
I7911
sg71
(dp314
I7906
S'    def __iter__(self):'
p315
sI7907
S'        for tablename in self.tables:'
p316
sI7908
S'            yield self[tablename]'
p317
sI7909
S''
sI7910
S'    def __getitem__(self, key):'
p318
sI7911
S'        return self.__getattr__(str(key))'
p319
sI7912
S''
sI7913
S'    def __getattr__(self, key):'
p320
sI7914
S"        if ogetattr(self,'_lazy_tables') and \\"
p321
sI7915
S"                key in ogetattr(self,'_LAZY_TABLES'):"
p322
ssg83
S'(self=<DAL uri="sqlite://storage.sqlite">, key=\'person\')'
p323
sg85
g20
sa(dp324
g62
S'/home/desktop/web2py/gluon/dal.py'
p325
sg64
(dp326
S'self'
p327
S'<DAL uri="sqlite://storage.sqlite">'
p328
sS'global ogetattr'
p329
S"<slot wrapper '__getattribute__' of 'object' objects>"
p330
sS'key'
p331
S"'person'"
p332
ssg70
I7918
sg71
(dp333
I7913
S'    def __getattr__(self, key):'
p334
sI7914
S"        if ogetattr(self,'_lazy_tables') and \\"
p335
sI7915
S"                key in ogetattr(self,'_LAZY_TABLES'):"
p336
sI7916
S'            tablename, fields, args = self._LAZY_TABLES.pop(key)'
p337
sI7917
S'            return self.lazy_define_table(tablename,*fields,**args)'
p338
sI7918
S'        return ogetattr(self, key)'
p339
sI7919
S''
sI7920
S'    def __setitem__(self, key, value):'
p340
sI7921
S'        osetattr(self, str(key), value)'
p341
sI7922
S''
ssg83
S'(self=<DAL uri="sqlite://storage.sqlite">, key=\'person\')'
p342
sg85
S'__getattr__'
p343
sasS'pyver'
p344
S'Python 2.7.4: /usr/bin/python (prefix: /usr)'
p345
sS'session'
p346
g57
(S's\xe7\x07\x00\x00<div><table><tr><td style="font-weight:bold;vertical-align:top">auth</td><td valign="top">:</td><td><div><table><tr><td style="font-weight:bold;vertical-align:top">expiration</td><td valign="top">:</td><td><div>3600</div></td></tr><tr><td style="font-weight:bold;vertical-align:top">hmac_key</td><td valign="top">:</td><td><div>69407f99-8bf6-4405-8c75-a15a4f503298</div></td></tr><tr><td style="font-weight:bold;vertical-align:top">last_visit</td><td valign="top">:</td><td><div>datetime.datetime(2013, 7, 27, 8, 27, 44, 875674)</div></td></tr><tr><td style="font-weight:bold;vertical-align:top">remember</td><td valign="top">:</td><td><div>False</div></td></tr><tr><td style="font-weight:bold;vertical-align:top">user</td><td valign="top">:</td><td><div><table><tr><td style="font-weight:bold;vertical-align:top">email</td><td valign="top">:</td><td><div>tarcsanyi.laszlo+a@gmail.com</div></td></tr><tr><td style="font-weight:bold;vertical-align:top">first_name</td><td valign="top">:</td><td><div>a</div></td></tr><tr><td style="font-weight:bold;vertical-align:top">id</td><td valign="top">:</td><td><div>1L</div></td></tr><tr><td style="font-weight:bold;vertical-align:top">last_name</td><td valign="top">:</td><td><div>a</div></td></tr><tr><td style="font-weight:bold;vertical-align:top">registration_id</td><td valign="top">:</td><td><div></div></td></tr><tr><td style="font-weight:bold;vertical-align:top">registration_key</td><td valign="top">:</td><td><div></div></td></tr><tr><td style="font-weight:bold;vertical-align:top">reset_password_key</td><td valign="top">:</td><td><div></div></td></tr></table></div></td></tr><tr><td style="font-weight:bold;vertical-align:top">user_groups</td><td valign="top">:</td><td><div><table><tr><td style="font-weight:bold;vertical-align:top">1</td><td valign="top">:</td><td><div>user_1</div></td></tr></table></div></td></tr></table></div></td></tr><tr><td style="font-weight:bold;vertical-align:top">flash</td><td valign="top">:</td><td><div>None</div></td></tr></table></div>'
tRp347
sS'etype'
p348
S"<type 'exceptions.AttributeError'>"
p349
sS'date'
p350
S'Sat Jul 27 08:29:57 2013'
p351
sS'response'
p352
g57
(S's\xa3-\x00\x00<div><table><tr><td style="font-weight:bold;vertical-align:top">body</td><td valign="top">:</td><td><div>&lt;cStringIO.StringO object at 0xafb92200&gt;</div></td></tr><tr><td style="font-weight:bold;vertical-align:top">cookies</td><td valign="top">:</td><td><div><table><tr><td style="font-weight:bold;vertical-align:top">session_id_codereviewmachine</td><td valign="top">:</td><td><div>127.0.0.1-f2ec2a17-968f-420a-a042-4278a0928294<table><tr><td style="font-weight:bold;vertical-align:top">comment</td><td valign="top">:</td><td><div></div></td></tr><tr><td style="font-weight:bold;vertical-align:top">domain</td><td valign="top">:</td><td><div></div></td></tr><tr><td style="font-weight:bold;vertical-align:top">expires</td><td valign="top">:</td><td><div></div></td></tr><tr><td style="font-weight:bold;vertical-align:top">httponly</td><td valign="top">:</td><td><div></div></td></tr><tr><td style="font-weight:bold;vertical-align:top">max-age</td><td valign="top">:</td><td><div></div></td></tr><tr><td style="font-weight:bold;vertical-align:top">path</td><td valign="top">:</td><td><div>/</div></td></tr><tr><td style="font-weight:bold;vertical-align:top">secure</td><td valign="top">:</td><td><div></div></td></tr><tr><td style="font-weight:bold;vertical-align:top">version</td><td valign="top">:</td><td><div></div></td></tr></table></div></td></tr></table></div></td></tr><tr><td style="font-weight:bold;vertical-align:top">delimiters</td><td valign="top">:</td><td><div><table><tr><td><div>{{</div></td></tr><tr><td><div>}}</div></td></tr></table></div></td></tr><tr><td style="font-weight:bold;vertical-align:top">files</td><td valign="top">:</td><td><div><table></table></div></td></tr><tr><td style="font-weight:bold;vertical-align:top">flash</td><td valign="top">:</td><td><div></div></td></tr><tr><td style="font-weight:bold;vertical-align:top">generic_patterns</td><td valign="top">:</td><td><div><table><tr><td><div>*</div></td></tr></table></div></td></tr><tr><td style="font-weight:bold;vertical-align:top">google_analytics_id</td><td valign="top">:</td><td><div>None</div></td></tr><tr><td style="font-weight:bold;vertical-align:top">headers</td><td valign="top">:</td><td><div><table><tr><td style="font-weight:bold;vertical-align:top">X-Powered-By</td><td valign="top">:</td><td><div>web2py</div></td></tr></table></div></td></tr><tr><td style="font-weight:bold;vertical-align:top">logo</td><td valign="top">:</td><td><div><a class="brand" href="http://www.web2py.com/"><b>web<span>2</span>py</b>&trade;&nbsp;</a></div></td></tr><tr><td style="font-weight:bold;vertical-align:top">menu</td><td valign="top">:</td><td><div><table><tr><td><div><table><tr><td><div>Home</div></td></tr><tr><td><div>False</div></td></tr><tr><td><div>/CodeReviewMachine/default/index.load</div></td></tr><tr><td><div><table></table></div></td></tr></table></div></td></tr><tr><td><div><table><tr><td><div><span class="highlighted">web2py</span></div></td></tr><tr><td><div>False</div></td></tr><tr><td><div>http://web2py.com</div></td></tr><tr><td><div><table><tr><td><div><table><tr><td><div>My Sites</div></td></tr><tr><td><div>False</div></td></tr><tr><td><div>/admin/default/site.load</div></td></tr></table></div></td></tr><tr><td><div><table><tr><td><div>This App</div></td></tr><tr><td><div>False</div></td></tr><tr><td><div>/admin/default/design.load/CodeReviewMachine</div></td></tr><tr><td><div>[(&lt;lazyT &#x27;Controller&#x27;&gt;, False, &#x27;/admin/default/edit.load/CodeReviewMachine/controllers/changelist.py&#x27;), (&lt;lazyT &#x27;View&#x27;&gt;, False, &#x27;/admin/default/edit.load/CodeReviewMachine/views/changelist/add_changelist.load&#x27;), (&lt;lazyT &#x27;Layout&#x27;&gt;, False, &#x27;/admin/default/edit.load/CodeReviewMachine/views/layout.html&#x27;), (&lt;lazyT &#x27;Stylesheet&#x27;&gt;, False, &#x27;/admin/default/edit.load/CodeReviewMachine/static/css/web2py.css&#x27;), (&lt;lazyT &#x27;DB Model&#x27;&gt;, False, &#x27;/admin/default/edit.load/CodeReviewMachine/models/db.py&#x27;), (&lt;lazyT &#x27;Menu Model&#x27;&gt;, False, &#x27;/admin/default/edit.load/CodeReviewMachine/models/menu.py&#x27;), (&lt;lazyT &#x27;Database&#x27;&gt;, False, &#x27;/CodeReviewMachine/appadmin/index.load&#x27;), (&lt;lazyT &#x27;Errors&#x27;&gt;, False, &#x27;/admin/default/errors.load/CodeReviewMachine&#x27;), (&lt;lazyT &#x27;About&#x27;&gt;, False, &#x27;/admin/default/about.load/CodeReviewMachine&#x27;)]</div></td></tr></table></div></td></tr><tr><td><div><table><tr><td><div>web2py.com</div></td></tr><tr><td><div>False</div></td></tr><tr><td><div>http://www.web2py.com</div></td></tr><tr><td><div>[(&lt;lazyT &#x27;Download&#x27;&gt;, False, &#x27;http://www.web2py.com/examples/default/download&#x27;), (&lt;lazyT &#x27;Support&#x27;&gt;, False, &#x27;http://www.web2py.com/examples/default/support&#x27;), (&lt;lazyT &#x27;Demo&#x27;&gt;, False, &#x27;http://web2py.com/demo_admin&#x27;), (&lt;lazyT &#x27;Quick Examples&#x27;&gt;, False, &#x27;http://web2py.com/examples/default/examples&#x27;), (&lt;lazyT &#x27;FAQ&#x27;&gt;, False, &#x27;http://web2py.com/AlterEgo&#x27;), (&lt;lazyT &#x27;Videos&#x27;&gt;, False, &#x27;http://www.web2py.com/examples/default/videos/&#x27;), (&lt;lazyT &#x27;Free Applications&#x27;&gt;, False, &#x27;http://web2py.com/appliances&#x27;), (&lt;lazyT &#x27;Plugins&#x27;&gt;, False, &#x27;http://web2py.com/plugins&#x27;), (&lt;lazyT &#x27;Layouts&#x27;&gt;, False, &#x27;http://web2py.com/layouts&#x27;), (&lt;lazyT &#x27;Recipes&#x27;&gt;, False, &#x27;http://web2pyslices.com/&#x27;), (&lt;lazyT &#x27;Semantic&#x27;&gt;, False, &#x27;http://web2py.com/semantic&#x27;)]</div></td></tr></table></div></td></tr><tr><td><div><table><tr><td><div>Documentation</div></td></tr><tr><td><div>False</div></td></tr><tr><td><div>http://www.web2py.com/book</div></td></tr><tr><td><div>[(&lt;lazyT &#x27;Preface&#x27;&gt;, False, &#x27;http://www.web2py.com/book/default/chapter/00&#x27;), (&lt;lazyT &#x27;Introduction&#x27;&gt;, False, &#x27;http://www.web2py.com/book/default/chapter/01&#x27;), (&lt;lazyT &#x27;Python&#x27;&gt;, False, &#x27;http://www.web2py.com/book/default/chapter/02&#x27;), (&lt;lazyT &#x27;Overview&#x27;&gt;, False, &#x27;http://www.web2py.com/book/default/chapter/03&#x27;), (&lt;lazyT &#x27;The Core&#x27;&gt;, False, &#x27;http://www.web2py.com/book/default/chapter/04&#x27;), (&lt;lazyT &#x27;The Views&#x27;&gt;, False, &#x27;http://www.web2py.com/book/default/chapter/05&#x27;), (&lt;lazyT &#x27;Database&#x27;&gt;, False, &#x27;http://www.web2py.com/book/default/chapter/06&#x27;), (&lt;lazyT &#x27;Forms and Validators&#x27;&gt;, False, &#x27;http://www.web2py.com/book/default/chapter/07&#x27;), (&lt;lazyT &#x27;Email and SMS&#x27;&gt;, False, &#x27;http://www.web2py.com/book/default/chapter/08&#x27;), (&lt;lazyT &#x27;Access Control&#x27;&gt;, False, &#x27;http://www.web2py.com/book/default/chapter/09&#x27;), (&lt;lazyT &#x27;Services&#x27;&gt;, False, &#x27;http://www.web2py.com/book/default/chapter/10&#x27;), (&lt;lazyT &#x27;Ajax Recipes&#x27;&gt;, False, &#x27;http://www.web2py.com/book/default/chapter/11&#x27;), (&lt;lazyT &#x27;Components and Plugins&#x27;&gt;, False, &#x27;http://www.web2py.com/book/default/chapter/12&#x27;), (&lt;lazyT &#x27;Deployment Recipes&#x27;&gt;, False, &#x27;http://www.web2py.com/book/default/chapter/13&#x27;), (&lt;lazyT &#x27;Other Recipes&#x27;&gt;, False, &#x27;http://www.web2py.com/book/default/chapter/14&#x27;), (&lt;lazyT &#x27;Buy this book&#x27;&gt;, False, &#x27;http://stores.lulu.com/web2py&#x27;)]</div></td></tr></table></div></td></tr><tr><td><div><table><tr><td><div>Community</div></td></tr><tr><td><div>False</div></td></tr><tr><td><div>None</div></td></tr><tr><td><div>[(&lt;lazyT &#x27;Groups&#x27;&gt;, False, &#x27;http://www.web2py.com/examples/default/usergroups&#x27;), (&lt;lazyT &#x27;Twitter&#x27;&gt;, False, &#x27;http://twitter.com/web2py&#x27;), (&lt;lazyT &#x27;Live Chat&#x27;&gt;, False, &#x27;http://webchat.freenode.net/?channels=web2py&#x27;)]</div></td></tr></table></div></td></tr><tr><td><div><table><tr><td><div>Plugins</div></td></tr><tr><td><div>False</div></td></tr><tr><td><div>None</div></td></tr><tr><td><div>[(&#x27;plugin_wiki&#x27;, False, &#x27;http://web2py.com/examples/default/download&#x27;), (&lt;lazyT &#x27;Other Plugins&#x27;&gt;, False, &#x27;http://web2py.com/plugins&#x27;), (&lt;lazyT &#x27;Layout Plugins&#x27;&gt;, False, &#x27;http://web2py.com/layouts&#x27;)]</div></td></tr></table></div></td></tr></table></div></td></tr></table></div></td></tr></table></div></td></tr><tr><td style="font-weight:bold;vertical-align:top">meta</td><td valign="top">:</td><td><div><table><tr><td style="font-weight:bold;vertical-align:top">author</td><td valign="top">:</td><td><div>Your Name &lt;you@example.com&gt;</div></td></tr><tr><td style="font-weight:bold;vertical-align:top">description</td><td valign="top">:</td><td><div>a cool new app</div></td></tr><tr><td style="font-weight:bold;vertical-align:top">generator</td><td valign="top">:</td><td><div>Web2py Web Framework</div></td></tr><tr><td style="font-weight:bold;vertical-align:top">keywords</td><td valign="top">:</td><td><div>web2py, python, framework</div></td></tr></table></div></td></tr><tr><td style="font-weight:bold;vertical-align:top">models_to_run</td><td valign="top">:</td><td><div><table><tr><td><div>^\\w+\\.py$</div></td></tr><tr><td><div>^changelist/\\w+\\.py$</div></td></tr><tr><td><div>^changelist/add_changelist/\\w+\\.py$</div></td></tr></table></div></td></tr><tr><td style="font-weight:bold;vertical-align:top">postprocessing</td><td valign="top">:</td><td><div><table></table></div></td></tr><tr><td style="font-weight:bold;vertical-align:top">session_cookie_expires</td><td valign="top">:</td><td><div>None</div></td></tr><tr><td style="font-weight:bold;vertical-align:top">session_data_name</td><td valign="top">:</td><td><div>session_data_codereviewmachine</div></td></tr><tr><td style="font-weight:bold;vertical-align:top">session_file</td><td valign="top">:</td><td><div>&lt;open file &#x27;/home/desktop/web2py/applications/CodeReviewMachine/sessions/127.0.0.1-f2ec2a17-968f-420a-a042-4278a0928294&#x27;, mode &#x27;rb+&#x27; at 0xaf685968&gt;</div></td></tr><tr><td style="font-weight:bold;vertical-align:top">session_filename</td><td valign="top">:</td><td><div>/home/desktop/web2py/applications/CodeReviewMachine/sessions/127.0.0.1-f2ec2a17-968f-420a-a042-4278a0928294</div></td></tr><tr><td style="font-weight:bold;vertical-align:top">session_id</td><td valign="top">:</td><td><div>127.0.0.1-f2ec2a17-968f-420a-a042-4278a0928294</div></td></tr><tr><td style="font-weight:bold;vertical-align:top">session_id_name</td><td valign="top">:</td><td><div>session_id_codereviewmachine</div></td></tr><tr><td style="font-weight:bold;vertical-align:top">session_locked</td><td valign="top">:</td><td><div>True</div></td></tr><tr><td style="font-weight:bold;vertical-align:top">session_new</td><td valign="top">:</td><td><div>False</div></td></tr><tr><td style="font-weight:bold;vertical-align:top">session_storage_type</td><td valign="top">:</td><td><div>file</div></td></tr><tr><td style="font-weight:bold;vertical-align:top">status</td><td valign="top">:</td><td><div>200</div></td></tr><tr><td style="font-weight:bold;vertical-align:top">subtitle</td><td valign="top">:</td><td><div>customize me!</div></td></tr><tr><td style="font-weight:bold;vertical-align:top">title</td><td valign="top">:</td><td><div>Codereviewmachine</div></td></tr><tr><td style="font-weight:bold;vertical-align:top">view</td><td valign="top">:</td><td><div>changelist/add_changelist.load</div></td></tr></table></div>'
tRp353
sS'locals'
p354
(dp355
S'self'
p356
S'<DAL uri="sqlite://storage.sqlite">'
p357
sS'key'
p358
S"'person'"
p359
sssS'traceback'
p360
S'Traceback (most recent call last):\n  File "/home/desktop/web2py/gluon/restricted.py", line 212, in restricted\n    exec ccode in environment\n  File "/home/desktop/web2py/applications/CodeReviewMachine/controllers/changelist.py", line 27, in <module>\n  File "/home/desktop/web2py/gluon/globals.py", line 194, in <lambda>\n    self._caller = lambda f: f()\n  File "/home/desktop/web2py/gluon/tools.py", line 3021, in f\n    return action(*a, **b)\n  File "/home/desktop/web2py/applications/CodeReviewMachine/controllers/changelist.py", line 12, in add_changelist\n    if form.process().accepted:\n  File "/home/desktop/web2py/gluon/html.py", line 2185, in process\n    self.validate(**kwargs)\n  File "/home/desktop/web2py/gluon/html.py", line 2124, in validate\n    if self.accepts(**kwargs):\n  File "/home/desktop/web2py/gluon/html.py", line 2007, in accepts\n    status = self._traverse(status, hideerror)\n  File "/home/desktop/web2py/gluon/html.py", line 846, in _traverse\n    newstatus = c._traverse(status, hideerror) and newstatus\n  File "/home/desktop/web2py/gluon/html.py", line 853, in _traverse\n    newstatus = self._validate()\n  File "/home/desktop/web2py/gluon/html.py", line 1756, in _validate\n    (value, errors) = validator(value)\n  File "/home/desktop/web2py/gluon/validators.py", line 645, in __call__\n    table = self.dbset.db[tablename]\n  File "/home/desktop/web2py/gluon/dal.py", line 7911, in __getitem__\n    return self.__getattr__(str(key))\n  File "/home/desktop/web2py/gluon/dal.py", line 7918, in __getattr__\n    return ogetattr(self, key)\nAttributeError: \'DAL\' object has no attribute \'person\'\n'
p361
s.